	.file "codigoC.c"
	.text
	.globl stack
	.bss
	.align 32
	.type  stack, @object
	.size  stack, 40000
stack:
	.zero  40000
	.globl heap
	.align 32
	.type  heap, @object
	.size  heap, 40000
heap:
	.zero  40000
	.globl p
	.align 4
	.type  p, @object
	.size  p, 4
p:
	.zero  4
	.globl h
	.align 4
	.type  h, @object
	.size  h, 4
h:
	.zero  4
	.globl t0
	.align 4
	.type  t0, @object
	.size  t0, 4
t0:
	.zero  4
	.globl t1
	.align 4
	.type  t1, @object
	.size  t1, 4
t1:
	.zero  4
	.globl t2
	.align 4
	.type  t2, @object
	.size  t2, 4
t2:
	.zero  4
	.globl t3
	.align 4
	.type  t3, @object
	.size  t3, 4
t3:
	.zero  4
	.globl t4
	.align 4
	.type  t4, @object
	.size  t4, 4
t4:
	.zero  4
	.globl t5
	.align 4
	.type  t5, @object
	.size  t5, 4
t5:
	.zero  4
	.globl t6
	.align 4
	.type  t6, @object
	.size  t6, 4
t6:
	.zero  4
	.globl t7
	.align 4
	.type  t7, @object
	.size  t7, 4
t7:
	.zero  4
	.globl t8
	.align 4
	.type  t8, @object
	.size  t8, 4
t8:
	.zero  4
	.globl t9
	.align 4
	.type  t9, @object
	.size  t9, 4
t9:
	.zero  4
	.globl t10
	.align 4
	.type  t10, @object
	.size  t10, 4
t10:
	.zero  4
	.globl t11
	.align 4
	.type  t11, @object
	.size  t11, 4
t11:
	.zero  4
	.globl t12
	.align 4
	.type  t12, @object
	.size  t12, 4
t12:
	.zero  4
	.globl t13
	.align 4
	.type  t13, @object
	.size  t13, 4
t13:
	.zero  4
	.globl t14
	.align 4
	.type  t14, @object
	.size  t14, 4
t14:
	.zero  4
	.globl t15
	.align 4
	.type  t15, @object
	.size  t15, 4
t15:
	.zero  4
	.globl t16
	.align 4
	.type  t16, @object
	.size  t16, 4
t16:
	.zero  4
	.globl t17
	.align 4
	.type  t17, @object
	.size  t17, 4
t17:
	.zero  4
	.globl t18
	.align 4
	.type  t18, @object
	.size  t18, 4
t18:
	.zero  4
	.globl t19
	.align 4
	.type  t19, @object
	.size  t19, 4
t19:
	.zero  4
	.globl t20
	.align 4
	.type  t20, @object
	.size  t20, 4
t20:
	.zero  4
	.globl t21
	.align 4
	.type  t21, @object
	.size  t21, 4
t21:
	.zero  4
	.globl t22
	.align 4
	.type  t22, @object
	.size  t22, 4
t22:
	.zero  4
	.globl t23
	.align 4
	.type  t23, @object
	.size  t23, 4
t23:
	.zero  4
	.globl t24
	.align 4
	.type  t24, @object
	.size  t24, 4
t24:
	.zero  4
	.globl t25
	.align 4
	.type  t25, @object
	.size  t25, 4
t25:
	.zero  4
	.globl t26
	.align 4
	.type  t26, @object
	.size  t26, 4
t26:
	.zero  4
	.globl t27
	.align 4
	.type  t27, @object
	.size  t27, 4
t27:
	.zero  4
	.globl t28
	.align 4
	.type  t28, @object
	.size  t28, 4
t28:
	.zero  4
	.globl t29
	.align 4
	.type  t29, @object
	.size  t29, 4
t29:
	.zero  4
	.globl t30
	.align 4
	.type  t30, @object
	.size  t30, 4
t30:
	.zero  4
	.globl t31
	.align 4
	.type  t31, @object
	.size  t31, 4
t31:
	.zero  4
	.globl t32
	.align 4
	.type  t32, @object
	.size  t32, 4
t32:
	.zero  4
	.globl t33
	.align 4
	.type  t33, @object
	.size  t33, 4
t33:
	.zero  4
	.globl t34
	.align 4
	.type  t34, @object
	.size  t34, 4
t34:
	.zero  4
	.globl t35
	.align 4
	.type  t35, @object
	.size  t35, 4
t35:
	.zero  4
	.globl t36
	.align 4
	.type  t36, @object
	.size  t36, 4
t36:
	.zero  4
	.globl t37
	.align 4
	.type  t37, @object
	.size  t37, 4
t37:
	.zero  4
	.globl t38
	.align 4
	.type  t38, @object
	.size  t38, 4
t38:
	.zero  4
	.globl t39
	.align 4
	.type  t39, @object
	.size  t39, 4
t39:
	.zero  4
	.globl t40
	.align 4
	.type  t40, @object
	.size  t40, 4
t40:
	.zero  4
	.globl t41
	.align 4
	.type  t41, @object
	.size  t41, 4
t41:
	.zero  4
	.globl t42
	.align 4
	.type  t42, @object
	.size  t42, 4
t42:
	.zero  4
	.globl t43
	.align 4
	.type  t43, @object
	.size  t43, 4
t43:
	.zero  4
	.globl t44
	.align 4
	.type  t44, @object
	.size  t44, 4
t44:
	.zero  4
	.globl t45
	.align 4
	.type  t45, @object
	.size  t45, 4
t45:
	.zero  4
	.globl t46
	.align 4
	.type  t46, @object
	.size  t46, 4
t46:
	.zero  4
	.globl t47
	.align 4
	.type  t47, @object
	.size  t47, 4
t47:
	.zero  4
	.globl t48
	.align 4
	.type  t48, @object
	.size  t48, 4
t48:
	.zero  4
	.globl t49
	.align 4
	.type  t49, @object
	.size  t49, 4
t49:
	.zero  4
	.globl t50
	.align 4
	.type  t50, @object
	.size  t50, 4
t50:
	.zero  4
	.globl t51
	.align 4
	.type  t51, @object
	.size  t51, 4
t51:
	.zero  4
	.globl t52
	.align 4
	.type  t52, @object
	.size  t52, 4
t52:
	.zero  4
	.globl t53
	.align 4
	.type  t53, @object
	.size  t53, 4
t53:
	.zero  4
	.globl t54
	.align 4
	.type  t54, @object
	.size  t54, 4
t54:
	.zero  4
	.globl t55
	.align 4
	.type  t55, @object
	.size  t55, 4
t55:
	.zero  4
	.globl t56
	.align 4
	.type  t56, @object
	.size  t56, 4
t56:
	.zero  4
	.globl t57
	.align 4
	.type  t57, @object
	.size  t57, 4
t57:
	.zero  4
	.globl t58
	.align 4
	.type  t58, @object
	.size  t58, 4
t58:
	.zero  4
	.globl t59
	.align 4
	.type  t59, @object
	.size  t59, 4
t59:
	.zero  4
	.globl t60
	.align 4
	.type  t60, @object
	.size  t60, 4
t60:
	.zero  4
	.globl t61
	.align 4
	.type  t61, @object
	.size  t61, 4
t61:
	.zero  4
	.globl t62
	.align 4
	.type  t62, @object
	.size  t62, 4
t62:
	.zero  4
	.globl t63
	.align 4
	.type  t63, @object
	.size  t63, 4
t63:
	.zero  4
	.globl t64
	.align 4
	.type  t64, @object
	.size  t64, 4
t64:
	.zero  4
	.globl t65
	.align 4
	.type  t65, @object
	.size  t65, 4
t65:
	.zero  4
	.globl t66
	.align 4
	.type  t66, @object
	.size  t66, 4
t66:
	.zero  4
	.globl t67
	.align 4
	.type  t67, @object
	.size  t67, 4
t67:
	.zero  4
	.globl t68
	.align 4
	.type  t68, @object
	.size  t68, 4
t68:
	.zero  4
	.globl t69
	.align 4
	.type  t69, @object
	.size  t69, 4
t69:
	.zero  4
	.globl t70
	.align 4
	.type  t70, @object
	.size  t70, 4
t70:
	.zero  4
	.globl t71
	.align 4
	.type  t71, @object
	.size  t71, 4
t71:
	.zero  4
	.globl t72
	.align 4
	.type  t72, @object
	.size  t72, 4
t72:
	.zero  4
	.globl t73
	.align 4
	.type  t73, @object
	.size  t73, 4
t73:
	.zero  4
	.globl t74
	.align 4
	.type  t74, @object
	.size  t74, 4
t74:
	.zero  4
	.globl t75
	.align 4
	.type  t75, @object
	.size  t75, 4
t75:
	.zero  4
	.globl t76
	.align 4
	.type  t76, @object
	.size  t76, 4
t76:
	.zero  4
	.globl t77
	.align 4
	.type  t77, @object
	.size  t77, 4
t77:
	.zero  4
	.globl t78
	.align 4
	.type  t78, @object
	.size  t78, 4
t78:
	.zero  4
	.globl t79
	.align 4
	.type  t79, @object
	.size  t79, 4
t79:
	.zero  4
	.globl t80
	.align 4
	.type  t80, @object
	.size  t80, 4
t80:
	.zero  4
	.globl t81
	.align 4
	.type  t81, @object
	.size  t81, 4
t81:
	.zero  4
	.globl t82
	.align 4
	.type  t82, @object
	.size  t82, 4
t82:
	.zero  4
	.globl t83
	.align 4
	.type  t83, @object
	.size  t83, 4
t83:
	.zero  4
	.globl t84
	.align 4
	.type  t84, @object
	.size  t84, 4
t84:
	.zero  4
	.globl t85
	.align 4
	.type  t85, @object
	.size  t85, 4
t85:
	.zero  4
	.globl t86
	.align 4
	.type  t86, @object
	.size  t86, 4
t86:
	.zero  4
	.globl t87
	.align 4
	.type  t87, @object
	.size  t87, 4
t87:
	.zero  4
	.globl t88
	.align 4
	.type  t88, @object
	.size  t88, 4
t88:
	.zero  4
	.globl t89
	.align 4
	.type  t89, @object
	.size  t89, 4
t89:
	.zero  4
	.globl t90
	.align 4
	.type  t90, @object
	.size  t90, 4
t90:
	.zero  4
	.globl t91
	.align 4
	.type  t91, @object
	.size  t91, 4
t91:
	.zero  4
	.globl t92
	.align 4
	.type  t92, @object
	.size  t92, 4
t92:
	.zero  4
	.globl t93
	.align 4
	.type  t93, @object
	.size  t93, 4
t93:
	.zero  4
	.globl t94
	.align 4
	.type  t94, @object
	.size  t94, 4
t94:
	.zero  4
	.globl t95
	.align 4
	.type  t95, @object
	.size  t95, 4
t95:
	.zero  4
	.globl t96
	.align 4
	.type  t96, @object
	.size  t96, 4
t96:
	.zero  4
	.globl t97
	.align 4
	.type  t97, @object
	.size  t97, 4
t97:
	.zero  4
	.globl t98
	.align 4
	.type  t98, @object
	.size  t98, 4
t98:
	.zero  4
	.globl t99
	.align 4
	.type  t99, @object
	.size  t99, 4
t99:
	.zero  4
	.globl t100
	.align 4
	.type  t100, @object
	.size  t100, 4
t100:
	.zero  4
	.globl t101
	.align 4
	.type  t101, @object
	.size  t101, 4
t101:
	.zero  4
	.globl t102
	.align 4
	.type  t102, @object
	.size  t102, 4
t102:
	.zero  4
	.globl t103
	.align 4
	.type  t103, @object
	.size  t103, 4
t103:
	.zero  4
	.globl t104
	.align 4
	.type  t104, @object
	.size  t104, 4
t104:
	.zero  4
	.globl t105
	.align 4
	.type  t105, @object
	.size  t105, 4
t105:
	.zero  4
	.globl t106
	.align 4
	.type  t106, @object
	.size  t106, 4
t106:
	.zero  4
	.globl t107
	.align 4
	.type  t107, @object
	.size  t107, 4
t107:
	.zero  4
	.globl t108
	.align 4
	.type  t108, @object
	.size  t108, 4
t108:
	.zero  4
	.globl t109
	.align 4
	.type  t109, @object
	.size  t109, 4
t109:
	.zero  4
	.globl t110
	.align 4
	.type  t110, @object
	.size  t110, 4
t110:
	.zero  4
	.globl t111
	.align 4
	.type  t111, @object
	.size  t111, 4
t111:
	.zero  4
	.globl t112
	.align 4
	.type  t112, @object
	.size  t112, 4
t112:
	.zero  4
	.globl t113
	.align 4
	.type  t113, @object
	.size  t113, 4
t113:
	.zero  4
	.globl t114
	.align 4
	.type  t114, @object
	.size  t114, 4
t114:
	.zero  4
	.globl t115
	.align 4
	.type  t115, @object
	.size  t115, 4
t115:
	.zero  4
	.globl t116
	.align 4
	.type  t116, @object
	.size  t116, 4
t116:
	.zero  4
	.globl t117
	.align 4
	.type  t117, @object
	.size  t117, 4
t117:
	.zero  4
	.globl t118
	.align 4
	.type  t118, @object
	.size  t118, 4
t118:
	.zero  4
	.globl t119
	.align 4
	.type  t119, @object
	.size  t119, 4
t119:
	.zero  4
	.globl t120
	.align 4
	.type  t120, @object
	.size  t120, 4
t120:
	.zero  4
	.globl t121
	.align 4
	.type  t121, @object
	.size  t121, 4
t121:
	.zero  4
	.globl t122
	.align 4
	.type  t122, @object
	.size  t122, 4
t122:
	.zero  4
	.globl t123
	.type  t123, @object
	.size  t123, 1
t123:
	.zero  1
	.globl t124
	.align 4
	.type  t124, @object
	.size  t124, 4
t124:
	.zero  4
	.globl t125
	.align 4
	.type  t125, @object
	.size  t125, 4
t125:
	.zero  4
	.globl t126
	.align 4
	.type  t126, @object
	.size  t126, 4
t126:
	.zero  4
	.globl t127
	.align 4
	.type  t127, @object
	.size  t127, 4
t127:
	.zero  4
	.globl t128
	.align 4
	.type  t128, @object
	.size  t128, 4
t128:
	.zero  4
	.globl t129
	.align 4
	.type  t129, @object
	.size  t129, 4
t129:
	.zero  4
	.globl t130
	.align 4
	.type  t130, @object
	.size  t130, 4
t130:
	.zero  4
	.globl t131
	.align 4
	.type  t131, @object
	.size  t131, 4
t131:
	.zero  4
	.globl t132
	.align 4
	.type  t132, @object
	.size  t132, 4
t132:
	.zero  4
	.globl t133
	.align 4
	.type  t133, @object
	.size  t133, 4
t133:
	.zero  4
	.globl t134
	.align 4
	.type  t134, @object
	.size  t134, 4
t134:
	.zero  4
	.globl t135
	.align 4
	.type  t135, @object
	.size  t135, 4
t135:
	.zero  4
	.globl t136
	.align 4
	.type  t136, @object
	.size  t136, 4
t136:
	.zero  4
	.globl t137
	.align 4
	.type  t137, @object
	.size  t137, 4
t137:
	.zero  4
	.globl t00
	.align 4
	.type  t00, @object
	.size  t00, 4
t00:
	.zero  4
	.section	.rodata
.LC0:
	.string	" %c"
.LC1:
	.string	"%c"
.LC2:
	.string	"%d"
.LC3:
	.string	"%f"
	.text
	.globl   JAVA_OperacionAlgebraica_OperacionAlgebraica
	.type    JAVA_OperacionAlgebraica_OperacionAlgebraica, @function
JAVA_OperacionAlgebraica_OperacionAlgebraica:
.LFB0:
	.cfi_startproc
	pushq	%rbp
	.cfi_def_cfa_offset 16
	.cfi_offset 6, -16
	movq	%rsp, %rbp
	.cfi_def_cfa_register 6
//h = 6 + h;
	movl	h(%rip), %eax
	addl	$6, %eax
	movl	%eax, h(%rip)
//t0 = 1;
	movl	$1, t0(%rip)
//t1 = 0 + p;
	movl	p(%rip), %eax
	addl	$0, %eax
	movl	%eax, t1(%rip)
//t2 = (int)stack[t1];
	movl	t1(%rip), %eax
	cltq
	leaq	0(,%rax,4), %rdx
	leaq	stack(%rip), %rax
	movss	(%rdx,%rax), %xmm0
	cvttss2sil	%xmm0, %eax
	movl	%eax, t2(%rip)
//t3 = t2 + 4;
	movl	t2(%rip), %eax
	addl	$4, %eax
	movl	%eax, t3(%rip)
//heap[t3] = (float) t0;
	movl	t0(%rip), %edx
	movl	t3(%rip), %eax
	pxor	%xmm0, %xmm0
	cvtsi2ssl	%edx, %xmm0
	cltq
	leaq	0(,%rax,4), %rdx
	leaq	heap(%rip), %rax
	movss	%xmm0, (%rdx,%rax)
//t4 = 0;
	movl	$0, t4(%rip)
//t5 = 0 + p;
	movl	p(%rip), %eax
	addl	$0, %eax
	movl	%eax, t5(%rip)
//t6 = (int)stack[t5];
	movl	t5(%rip), %eax
	cltq
	leaq	0(,%rax,4), %rdx
	leaq	stack(%rip), %rax
	movss	(%rdx,%rax), %xmm0
	cvttss2sil	%xmm0, %eax
	movl	%eax, t6(%rip)
//t7 = t6 + 5;
	movl	t6(%rip), %eax
	addl	$5, %eax
	movl	%eax, t7(%rip)
//heap[t7] = (float) t4;
	movl	t4(%rip), %edx
	movl	t7(%rip), %eax
	pxor	%xmm0, %xmm0
	cvtsi2ssl	%edx, %xmm0
	cltq
	leaq	0(,%rax,4), %rdx
	leaq	heap(%rip), %rax
	movss	%xmm0, (%rdx,%rax)
//t8 = LC4;
	movss	.LC4(%rip), %xmm0
	movss	%xmm0, t8(%rip)
//t9 = 0 + p;
	movl	p(%rip), %eax
	addl	$0, %eax
	movl	%eax, t9(%rip)
//t10 = (int)stack[t9];
	movl	t9(%rip), %eax
	cltq
	leaq	0(,%rax,4), %rdx
	leaq	stack(%rip), %rax
	movss	(%rdx,%rax), %xmm0
	cvttss2sil	%xmm0, %eax
	movl	%eax, t10(%rip)
//t11 = t10 + 0;
	movl	t10(%rip), %eax
	addl	$0, %eax
	movl	%eax, t11(%rip)
//heap[t11] = (float) t8;
	movl	t11(%rip), %eax
	movss	t8(%rip), %xmm0
	cltq
	leaq	0(,%rax,4), %rdx
	leaq	heap(%rip), %rax
	movss	%xmm0, (%rdx,%rax)
//t12 = LC5;
	movss	.LC5(%rip), %xmm0
	movss	%xmm0, t12(%rip)
//t13 = 0 + p;
	movl	p(%rip), %eax
	addl	$0, %eax
	movl	%eax, t13(%rip)
//t14 = (int)stack[t13];
	movl	t13(%rip), %eax
	cltq
	leaq	0(,%rax,4), %rdx
	leaq	stack(%rip), %rax
	movss	(%rdx,%rax), %xmm0
	cvttss2sil	%xmm0, %eax
	movl	%eax, t14(%rip)
//t15 = t14 + 1;
	movl	t14(%rip), %eax
	addl	$1, %eax
	movl	%eax, t15(%rip)
//heap[t15] = (float) t12;
	movl	t15(%rip), %eax
	movss	t12(%rip), %xmm0
	cltq
	leaq	0(,%rax,4), %rdx
	leaq	heap(%rip), %rax
	movss	%xmm0, (%rdx,%rax)
//t16 = LC6;
	movss	.LC6(%rip), %xmm0
	movss	%xmm0, t16(%rip)
//t17 = 0 + p;
	movl	p(%rip), %eax
	addl	$0, %eax
	movl	%eax, t17(%rip)
//t18 = (int)stack[t17];
	movl	t17(%rip), %eax
	cltq
	leaq	0(,%rax,4), %rdx
	leaq	stack(%rip), %rax
	movss	(%rdx,%rax), %xmm0
	cvttss2sil	%xmm0, %eax
	movl	%eax, t18(%rip)
//t19 = t18 + 2;
	movl	t18(%rip), %eax
	addl	$2, %eax
	movl	%eax, t19(%rip)
//heap[t19] = (float) t16;
	movl	t19(%rip), %eax
	movss	t16(%rip), %xmm0
	cltq
	leaq	0(,%rax,4), %rdx
	leaq	heap(%rip), %rax
	movss	%xmm0, (%rdx,%rax)
	popq	%rbp
	.cfi_def_cfa 7, 8
	ret
	.cfi_endproc
.LFE0:
	.size	JAVA_OperacionAlgebraica_OperacionAlgebraica, .-JAVA_OperacionAlgebraica_OperacionAlgebraica
	.section	.rodata
	.align 4
.LC4:
	.long	0
	.align 4
.LC5:
	.long	0
	.align 4
.LC6:
	.long	0
.LC7:
	.string	" %c"
.LC8:
	.string	"%c"
.LC9:
	.string	"%d"
.LC10:
	.string	"%f"
.LC11:
	.string "\n Ingrese el primer numero  : "
.LC12:
	.string "\n"
.LC13:
	.string "\n Ingrese el segundo numero : "
.LC14:
	.string "\n"
	.text
	.globl   JAVA_OperacionAlgebraica_Suma
	.type    JAVA_OperacionAlgebraica_Suma, @function
JAVA_OperacionAlgebraica_Suma:
.LFB1:
	.cfi_startproc
	pushq	%rbp
	.cfi_def_cfa_offset 16
	.cfi_offset 6, -16
	movq	%rsp, %rbp
	.cfi_def_cfa_register 6
//printf("LC11");
	leaq	.LC11(%rip), %rdi
	movl	$0, %eax
	call	printf@PLT
//printf("LC12");
	leaq	.LC12(%rip), %rdi
	movl	$0, %eax
	call	printf@PLT
//scanf("%f",&t20);
	leaq	t20(%rip), %rsi
	leaq	.LC10(%rip), %rdi
	movl	$0, %eax
	call	__isoc99_scanf@PLT
//t21 = 0 + p;
	movl	p(%rip), %eax
	addl	$0, %eax
	movl	%eax, t21(%rip)
//t22 = (int)stack[t21];
	movl	t21(%rip), %eax
	cltq
	leaq	0(,%rax,4), %rdx
	leaq	stack(%rip), %rax
	movss	(%rdx,%rax), %xmm0
	cvttss2sil	%xmm0, %eax
	movl	%eax, t22(%rip)
//t23 = t22 + 0;
	movl	t22(%rip), %eax
	addl	$0, %eax
	movl	%eax, t23(%rip)
//heap[t23] = (float) t20;
	movl	t23(%rip), %eax
	movss	t20(%rip), %xmm0
	cltq
	leaq	0(,%rax,4), %rdx
	leaq	heap(%rip), %rax
	movss	%xmm0, (%rdx,%rax)
//printf("LC13");
	leaq	.LC13(%rip), %rdi
	movl	$0, %eax
	call	printf@PLT
//printf("LC14");
	leaq	.LC14(%rip), %rdi
	movl	$0, %eax
	call	printf@PLT
//scanf("%f",&t24);
	leaq	t24(%rip), %rsi
	leaq	.LC10(%rip), %rdi
	movl	$0, %eax
	call	__isoc99_scanf@PLT
//t25 = 0 + p;
	movl	p(%rip), %eax
	addl	$0, %eax
	movl	%eax, t25(%rip)
//t26 = (int)stack[t25];
	movl	t25(%rip), %eax
	cltq
	leaq	0(,%rax,4), %rdx
	leaq	stack(%rip), %rax
	movss	(%rdx,%rax), %xmm0
	cvttss2sil	%xmm0, %eax
	movl	%eax, t26(%rip)
//t27 = t26 + 1;
	movl	t26(%rip), %eax
	addl	$1, %eax
	movl	%eax, t27(%rip)
//heap[t27] = (float) t24;
	movl	t27(%rip), %eax
	movss	t24(%rip), %xmm0
	cltq
	leaq	0(,%rax,4), %rdx
	leaq	heap(%rip), %rax
	movss	%xmm0, (%rdx,%rax)
//t28 = p + 0;
	movl	p(%rip), %eax
	addl	$0, %eax
	movl	%eax, t28(%rip)
//t29 = (int)stack[t28];
	movl	t28(%rip), %eax
	cltq
	leaq	0(,%rax,4), %rdx
	leaq	stack(%rip), %rax
	movss	(%rdx,%rax), %xmm0
	cvttss2sil	%xmm0, %eax
	movl	%eax, t29(%rip)
//t30 = t29 + 0;
	movl	t29(%rip), %eax
	addl	$0, %eax
	movl	%eax, t30(%rip)
//t31 = (float)heap[t30];
	movl	t30(%rip), %eax
	cltq
	leaq	0(,%rax,4), %rdx
	leaq	heap(%rip), %rax
	movss	(%rdx,%rax), %xmm0
	movss	%xmm0, t31(%rip)
//t32 = p + 0;
	movl	p(%rip), %eax
	addl	$0, %eax
	movl	%eax, t32(%rip)
//t33 = (int)stack[t32];
	movl	t32(%rip), %eax
	cltq
	leaq	0(,%rax,4), %rdx
	leaq	stack(%rip), %rax
	movss	(%rdx,%rax), %xmm0
	cvttss2sil	%xmm0, %eax
	movl	%eax, t33(%rip)
//t34 = t33 + 1;
	movl	t33(%rip), %eax
	addl	$1, %eax
	movl	%eax, t34(%rip)
//t35 = (float)heap[t34];
	movl	t34(%rip), %eax
	cltq
	leaq	0(,%rax,4), %rdx
	leaq	heap(%rip), %rax
	movss	(%rdx,%rax), %xmm0
	movss	%xmm0, t35(%rip)
//t36 = t31 + t35;
	movss	t31(%rip), %xmm1
	movss	t35(%rip), %xmm0
	addss	%xmm1, %xmm0
	movss	%xmm0, t36(%rip)
//t37 = 0 + p;
	movl	p(%rip), %eax
	addl	$0, %eax
	movl	%eax, t37(%rip)
//t38 = (int)stack[t37];
	movl	t37(%rip), %eax
	cltq
	leaq	0(,%rax,4), %rdx
	leaq	stack(%rip), %rax
	movss	(%rdx,%rax), %xmm0
	cvttss2sil	%xmm0, %eax
	movl	%eax, t38(%rip)
//t39 = t38 + 2;
	movl	t38(%rip), %eax
	addl	$2, %eax
	movl	%eax, t39(%rip)
//heap[t39] = (float) t36;
	movl	t39(%rip), %eax
	movss	t36(%rip), %xmm0
	cltq
	leaq	0(,%rax,4), %rdx
	leaq	heap(%rip), %rax
	movss	%xmm0, (%rdx,%rax)
	popq	%rbp
	.cfi_def_cfa 7, 8
	ret
	.cfi_endproc
.LFE1:
	.size	JAVA_OperacionAlgebraica_Suma, .-JAVA_OperacionAlgebraica_Suma
	.section	.rodata
.LC15:
	.string	" %c"
.LC16:
	.string	"%c"
.LC17:
	.string	"%d"
.LC18:
	.string	"%f"
.LC19:
	.string "\n Ingrese el numero hasta donde quiera contar"
.LC20:
	.string "\n"
.LC21:
	.string "espacio"
.LC22:
	.string "\n"
	.text
	.globl   JAVA_OperacionAlgebraica_Contador
	.type    JAVA_OperacionAlgebraica_Contador, @function
JAVA_OperacionAlgebraica_Contador:
.LFB2:
	.cfi_startproc
	pushq	%rbp
	.cfi_def_cfa_offset 16
	.cfi_offset 6, -16
	movq	%rsp, %rbp
	.cfi_def_cfa_register 6
//printf("LC19");
	leaq	.LC19(%rip), %rdi
	movl	$0, %eax
	call	printf@PLT
//printf("LC20");
	leaq	.LC20(%rip), %rdi
	movl	$0, %eax
	call	printf@PLT
//scanf("%f",&t40);
	leaq	t40(%rip), %rsi
	leaq	.LC18(%rip), %rdi
	movl	$0, %eax
	call	__isoc99_scanf@PLT
//t41 = 0 + p;
	movl	p(%rip), %eax
	addl	$0, %eax
	movl	%eax, t41(%rip)
//t42 = (int)stack[t41];
	movl	t41(%rip), %eax
	cltq
	leaq	0(,%rax,4), %rdx
	leaq	stack(%rip), %rax
	movss	(%rdx,%rax), %xmm0
	cvttss2sil	%xmm0, %eax
	movl	%eax, t42(%rip)
//t43 = t42 + 3;
	movl	t42(%rip), %eax
	addl	$3, %eax
	movl	%eax, t43(%rip)
//heap[t43] = (float) t40;
	movl	t43(%rip), %eax
	movss	t40(%rip), %xmm0
	cltq
	leaq	0(,%rax,4), %rdx
	leaq	heap(%rip), %rax
	movss	%xmm0, (%rdx,%rax)
//et0:
.et0:
//printf("LC21");
	leaq	.LC21(%rip), %rdi
	movl	$0, %eax
	call	printf@PLT
//t44 = p + 0;
	movl	p(%rip), %eax
	addl	$0, %eax
	movl	%eax, t44(%rip)
//t45 = (int)stack[t44];
	movl	t44(%rip), %eax
	cltq
	leaq	0(,%rax,4), %rdx
	leaq	stack(%rip), %rax
	movss	(%rdx,%rax), %xmm0
	cvttss2sil	%xmm0, %eax
	movl	%eax, t45(%rip)
//t46 = t45 + 4;
	movl	t45(%rip), %eax
	addl	$4, %eax
	movl	%eax, t46(%rip)
//t47 = (int)heap[t46];
	movl	t46(%rip), %eax
	cltq
	leaq	0(,%rax,4), %rdx
	leaq	heap(%rip), %rax
	movss	(%rdx,%rax), %xmm0
	cvttss2sil	%xmm0, %eax
	movl	%eax, t47(%rip)
//printf("%d",(int)t47);
	movl	t47(%rip), %eax
	movl	%eax, %esi
	leaq	.LC17(%rip), %rdi
	movl	$0, %eax
	call	printf@PLT
//printf("LC22");
	leaq	.LC22(%rip), %rdi
	movl	$0, %eax
	call	printf@PLT
//t48 = p + 0;
	movl	p(%rip), %eax
	addl	$0, %eax
	movl	%eax, t48(%rip)
//t49 = (int)stack[t48];
	movl	t48(%rip), %eax
	cltq
	leaq	0(,%rax,4), %rdx
	leaq	stack(%rip), %rax
	movss	(%rdx,%rax), %xmm0
	cvttss2sil	%xmm0, %eax
	movl	%eax, t49(%rip)
//t50 = t49 + 4;
	movl	t49(%rip), %eax
	addl	$4, %eax
	movl	%eax, t50(%rip)
//t51 = (int)heap[t50];
	movl	t50(%rip), %eax
	cltq
	leaq	0(,%rax,4), %rdx
	leaq	heap(%rip), %rax
	movss	(%rdx,%rax), %xmm0
	cvttss2sil	%xmm0, %eax
	movl	%eax, t51(%rip)
//t52 = 1;
	movl	$1, t52(%rip)
//t53 = t51 + t52;
	movl	t51(%rip), %edx
	movl	t52(%rip), %eax
	addl	%edx, %eax
	movl	%eax, t53(%rip)
//t54 = 0 + p;
	movl	p(%rip), %eax
	addl	$0, %eax
	movl	%eax, t54(%rip)
//t55 = (int)stack[t54];
	movl	t54(%rip), %eax
	cltq
	leaq	0(,%rax,4), %rdx
	leaq	stack(%rip), %rax
	movss	(%rdx,%rax), %xmm0
	cvttss2sil	%xmm0, %eax
	movl	%eax, t55(%rip)
//t56 = t55 + 4;
	movl	t55(%rip), %eax
	addl	$4, %eax
	movl	%eax, t56(%rip)
//heap[t56] = (float) t53;
	movl	t53(%rip), %edx
	movl	t56(%rip), %eax
	pxor	%xmm0, %xmm0
	cvtsi2ssl	%edx, %xmm0
	cltq
	leaq	0(,%rax,4), %rdx
	leaq	heap(%rip), %rax
	movss	%xmm0, (%rdx,%rax)
//t57 = p + 0;
	movl	p(%rip), %eax
	addl	$0, %eax
	movl	%eax, t57(%rip)
//t58 = (int)stack[t57];
	movl	t57(%rip), %eax
	cltq
	leaq	0(,%rax,4), %rdx
	leaq	stack(%rip), %rax
	movss	(%rdx,%rax), %xmm0
	cvttss2sil	%xmm0, %eax
	movl	%eax, t58(%rip)
//t59 = t58 + 4;
	movl	t58(%rip), %eax
	addl	$4, %eax
	movl	%eax, t59(%rip)
//t60 = (int)heap[t59];
	movl	t59(%rip), %eax
	cltq
	leaq	0(,%rax,4), %rdx
	leaq	heap(%rip), %rax
	movss	(%rdx,%rax), %xmm0
	cvttss2sil	%xmm0, %eax
	movl	%eax, t60(%rip)
//t61 = p + 0;
	movl	p(%rip), %eax
	addl	$0, %eax
	movl	%eax, t61(%rip)
//t62 = (int)stack[t61];
	movl	t61(%rip), %eax
	cltq
	leaq	0(,%rax,4), %rdx
	leaq	stack(%rip), %rax
	movss	(%rdx,%rax), %xmm0
	cvttss2sil	%xmm0, %eax
	movl	%eax, t62(%rip)
//t63 = t62 + 3;
	movl	t62(%rip), %eax
	addl	$3, %eax
	movl	%eax, t63(%rip)
//t64 = (int)heap[t63];
	movl	t63(%rip), %eax
	cltq
	leaq	0(,%rax,4), %rdx
	leaq	heap(%rip), %rax
	movss	(%rdx,%rax), %xmm0
	cvttss2sil	%xmm0, %eax
	movl	%eax, t64(%rip)
//if (t60 <= t64) goto et0;
	movl	t60(%rip), %edx
	movl	t64(%rip), %eax
	cmpl	%eax, %edx
	jle	.et0
//goto et1;
	jmp	.et1
//et1:
.et1:
//t00 = 0;
	movl	$0, t00(%rip)
	popq	%rbp
	.cfi_def_cfa 7, 8
	ret
	.cfi_endproc
.LFE2:
	.size	JAVA_OperacionAlgebraica_Contador, .-JAVA_OperacionAlgebraica_Contador
	.section	.rodata
.LC23:
	.string	" %c"
.LC24:
	.string	"%c"
.LC25:
	.string	"%d"
.LC26:
	.string	"%f"
	.text
	.globl   JAVA_OperacionAlgebraica_Cuadrado_ENTERO
	.type    JAVA_OperacionAlgebraica_Cuadrado_ENTERO, @function
JAVA_OperacionAlgebraica_Cuadrado_ENTERO:
.LFB3:
	.cfi_startproc
	pushq	%rbp
	.cfi_def_cfa_offset 16
	.cfi_offset 6, -16
	movq	%rsp, %rbp
	.cfi_def_cfa_register 6
//t65 = p + 2;
	movl	p(%rip), %eax
	addl	$2, %eax
	movl	%eax, t65(%rip)
//t66 = (int)stack[t65];
	movl	t65(%rip), %eax
	cltq
	leaq	0(,%rax,4), %rdx
	leaq	stack(%rip), %rax
	movss	(%rdx,%rax), %xmm0
	cvttss2sil	%xmm0, %eax
	movl	%eax, t66(%rip)
//t67 = p + 2;
	movl	p(%rip), %eax
	addl	$2, %eax
	movl	%eax, t67(%rip)
//t68 = (int)stack[t67];
	movl	t67(%rip), %eax
	cltq
	leaq	0(,%rax,4), %rdx
	leaq	stack(%rip), %rax
	movss	(%rdx,%rax), %xmm0
	cvttss2sil	%xmm0, %eax
	movl	%eax, t68(%rip)
//t69 = t66 * t68;
	movl	t66(%rip), %edx
	movl	t68(%rip), %eax
	imull	%edx, %eax
	movl	%eax, t69(%rip)
//t70 = p + 2;
	movl	p(%rip), %eax
	addl	$2, %eax
	movl	%eax, t70(%rip)
//stack[t70] = (float) t69;
	movl	t69(%rip), %edx
	movl	t70(%rip), %eax
	pxor	%xmm0, %xmm0
	cvtsi2ssl	%edx, %xmm0
	cltq
	leaq	0(,%rax,4), %rdx
	leaq	stack(%rip), %rax
	movss	%xmm0, (%rdx,%rax)
//t71 = p + 2;
	movl	p(%rip), %eax
	addl	$2, %eax
	movl	%eax, t71(%rip)
//t72 = (int)stack[t71];
	movl	t71(%rip), %eax
	cltq
	leaq	0(,%rax,4), %rdx
	leaq	stack(%rip), %rax
	movss	(%rdx,%rax), %xmm0
	cvttss2sil	%xmm0, %eax
	movl	%eax, t72(%rip)
//t73 = p + 0;
	movl	p(%rip), %eax
	addl	$0, %eax
	movl	%eax, t73(%rip)
//stack[t73] = (float) t72;
	movl	t72(%rip), %edx
	movl	t73(%rip), %eax
	pxor	%xmm0, %xmm0
	cvtsi2ssl	%edx, %xmm0
	cltq
	leaq	0(,%rax,4), %rdx
	leaq	stack(%rip), %rax
	movss	%xmm0, (%rdx,%rax)
//goto et2;
	jmp	.et2
//et2:
.et2:
//t00 = 0;
	movl	$0, t00(%rip)
	popq	%rbp
	.cfi_def_cfa 7, 8
	ret
	.cfi_endproc
.LFE3:
	.size	JAVA_OperacionAlgebraica_Cuadrado_ENTERO, .-JAVA_OperacionAlgebraica_Cuadrado_ENTERO
	.section	.rodata
.LC27:
	.string	" %c"
.LC28:
	.string	"%c"
.LC29:
	.string	"%d"
.LC30:
	.string	"%f"
.LC31:
	.string "\n Ingrese x para elevarlo al cuadrado :"
.LC32:
	.string "\n"
.LC33:
	.string "\n Antes de Elevarse es : "
.LC34:
	.string "\n"
.LC35:
	.string "\n x despus de Elevarse es : "
.LC36:
	.string "\n"
	.text
	.globl   JAVA_OperacionAlgebraica_ElevarCuadrado
	.type    JAVA_OperacionAlgebraica_ElevarCuadrado, @function
JAVA_OperacionAlgebraica_ElevarCuadrado:
.LFB4:
	.cfi_startproc
	pushq	%rbp
	.cfi_def_cfa_offset 16
	.cfi_offset 6, -16
	movq	%rsp, %rbp
	.cfi_def_cfa_register 6
//printf("LC31");
	leaq	.LC31(%rip), %rdi
	movl	$0, %eax
	call	printf@PLT
//printf("LC32");
	leaq	.LC32(%rip), %rdi
	movl	$0, %eax
	call	printf@PLT
//scanf("%f",&t74);
	leaq	t74(%rip), %rsi
	leaq	.LC30(%rip), %rdi
	movl	$0, %eax
	call	__isoc99_scanf@PLT
//t75 = 0 + p;
	movl	p(%rip), %eax
	addl	$0, %eax
	movl	%eax, t75(%rip)
//t76 = (int)stack[t75];
	movl	t75(%rip), %eax
	cltq
	leaq	0(,%rax,4), %rdx
	leaq	stack(%rip), %rax
	movss	(%rdx,%rax), %xmm0
	cvttss2sil	%xmm0, %eax
	movl	%eax, t76(%rip)
//t77 = t76 + 5;
	movl	t76(%rip), %eax
	addl	$5, %eax
	movl	%eax, t77(%rip)
//heap[t77] = (float) t74;
	movl	t77(%rip), %eax
	movss	t74(%rip), %xmm0
	cltq
	leaq	0(,%rax,4), %rdx
	leaq	heap(%rip), %rax
	movss	%xmm0, (%rdx,%rax)
//printf("LC33");
	leaq	.LC33(%rip), %rdi
	movl	$0, %eax
	call	printf@PLT
//t78 = p + 0;
	movl	p(%rip), %eax
	addl	$0, %eax
	movl	%eax, t78(%rip)
//t79 = (int)stack[t78];
	movl	t78(%rip), %eax
	cltq
	leaq	0(,%rax,4), %rdx
	leaq	stack(%rip), %rax
	movss	(%rdx,%rax), %xmm0
	cvttss2sil	%xmm0, %eax
	movl	%eax, t79(%rip)
//t80 = t79 + 5;
	movl	t79(%rip), %eax
	addl	$5, %eax
	movl	%eax, t80(%rip)
//t81 = (int)heap[t80];
	movl	t80(%rip), %eax
	cltq
	leaq	0(,%rax,4), %rdx
	leaq	heap(%rip), %rax
	movss	(%rdx,%rax), %xmm0
	cvttss2sil	%xmm0, %eax
	movl	%eax, t81(%rip)
//printf("%d",(int)t81);
	movl	t81(%rip), %eax
	movl	%eax, %esi
	leaq	.LC29(%rip), %rdi
	movl	$0, %eax
	call	printf@PLT
//printf("LC34");
	leaq	.LC34(%rip), %rdi
	movl	$0, %eax
	call	printf@PLT
//t82 = p + 0;
	movl	p(%rip), %eax
	addl	$0, %eax
	movl	%eax, t82(%rip)
//t83 = (int)stack[t82];
	movl	t82(%rip), %eax
	cltq
	leaq	0(,%rax,4), %rdx
	leaq	stack(%rip), %rax
	movss	(%rdx,%rax), %xmm0
	cvttss2sil	%xmm0, %eax
	movl	%eax, t83(%rip)
//t84 = t83 + 5;
	movl	t83(%rip), %eax
	addl	$5, %eax
	movl	%eax, t84(%rip)
//t85 = (int)heap[t84];
	movl	t84(%rip), %eax
	cltq
	leaq	0(,%rax,4), %rdx
	leaq	heap(%rip), %rax
	movss	(%rdx,%rax), %xmm0
	cvttss2sil	%xmm0, %eax
	movl	%eax, t85(%rip)
//t86 = p + 0;
	movl	p(%rip), %eax
	addl	$0, %eax
	movl	%eax, t86(%rip)
//t87 = (int)stack[t86];
	movl	t86(%rip), %eax
	cltq
	leaq	0(,%rax,4), %rdx
	leaq	stack(%rip), %rax
	movss	(%rdx,%rax), %xmm0
	cvttss2sil	%xmm0, %eax
	movl	%eax, t87(%rip)
//t88 = t87 + 5;
	movl	t87(%rip), %eax
	addl	$5, %eax
	movl	%eax, t88(%rip)
//t89 = (int)heap[t88];
	movl	t88(%rip), %eax
	cltq
	leaq	0(,%rax,4), %rdx
	leaq	heap(%rip), %rax
	movss	(%rdx,%rax), %xmm0
	cvttss2sil	%xmm0, %eax
	movl	%eax, t89(%rip)
//t90 = t85 * t89;
	movl	t85(%rip), %edx
	movl	t89(%rip), %eax
	imull	%edx, %eax
	movl	%eax, t90(%rip)
//t91 = 0 + p;
	movl	p(%rip), %eax
	addl	$0, %eax
	movl	%eax, t91(%rip)
//t92 = (int)stack[t91];
	movl	t91(%rip), %eax
	cltq
	leaq	0(,%rax,4), %rdx
	leaq	stack(%rip), %rax
	movss	(%rdx,%rax), %xmm0
	cvttss2sil	%xmm0, %eax
	movl	%eax, t92(%rip)
//t93 = t92 + 5;
	movl	t92(%rip), %eax
	addl	$5, %eax
	movl	%eax, t93(%rip)
//heap[t93] = (float) t90;
	movl	t90(%rip), %edx
	movl	t93(%rip), %eax
	pxor	%xmm0, %xmm0
	cvtsi2ssl	%edx, %xmm0
	cltq
	leaq	0(,%rax,4), %rdx
	leaq	heap(%rip), %rax
	movss	%xmm0, (%rdx,%rax)
//printf("LC35");
	leaq	.LC35(%rip), %rdi
	movl	$0, %eax
	call	printf@PLT
//t94 = p + 0;
	movl	p(%rip), %eax
	addl	$0, %eax
	movl	%eax, t94(%rip)
//t95 = (int)stack[t94];
	movl	t94(%rip), %eax
	cltq
	leaq	0(,%rax,4), %rdx
	leaq	stack(%rip), %rax
	movss	(%rdx,%rax), %xmm0
	cvttss2sil	%xmm0, %eax
	movl	%eax, t95(%rip)
//t96 = t95 + 5;
	movl	t95(%rip), %eax
	addl	$5, %eax
	movl	%eax, t96(%rip)
//t97 = (int)heap[t96];
	movl	t96(%rip), %eax
	cltq
	leaq	0(,%rax,4), %rdx
	leaq	heap(%rip), %rax
	movss	(%rdx,%rax), %xmm0
	cvttss2sil	%xmm0, %eax
	movl	%eax, t97(%rip)
//printf("%d",(int)t97);
	movl	t97(%rip), %eax
	movl	%eax, %esi
	leaq	.LC29(%rip), %rdi
	movl	$0, %eax
	call	printf@PLT
//printf("LC36");
	leaq	.LC36(%rip), %rdi
	movl	$0, %eax
	call	printf@PLT
	popq	%rbp
	.cfi_def_cfa 7, 8
	ret
	.cfi_endproc
.LFE4:
	.size	JAVA_OperacionAlgebraica_ElevarCuadrado, .-JAVA_OperacionAlgebraica_ElevarCuadrado
	.section	.rodata
.LC37:
	.string	" %c"
.LC38:
	.string	"%c"
.LC39:
	.string	"%d"
.LC40:
	.string	"%f"
.LC41:
	.string "resultado = "
.LC42:
	.string "\n"
.LC43:
	.string "x = "
.LC44:
	.string "\n"
.LC45:
	.string "contador = "
.LC46:
	.string "\n"
.LC47:
	.string "num1 = "
.LC48:
	.string "\n"
.LC49:
	.string "num2 = "
.LC50:
	.string "\n"
	.text
	.globl   JAVA_OperacionAlgebraica_escribirValores
	.type    JAVA_OperacionAlgebraica_escribirValores, @function
JAVA_OperacionAlgebraica_escribirValores:
.LFB5:
	.cfi_startproc
	pushq	%rbp
	.cfi_def_cfa_offset 16
	.cfi_offset 6, -16
	movq	%rsp, %rbp
	.cfi_def_cfa_register 6
//printf("LC41");
	leaq	.LC41(%rip), %rdi
	movl	$0, %eax
	call	printf@PLT
//t98 = p + 0;
	movl	p(%rip), %eax
	addl	$0, %eax
	movl	%eax, t98(%rip)
//t99 = (int)stack[t98];
	movl	t98(%rip), %eax
	cltq
	leaq	0(,%rax,4), %rdx
	leaq	stack(%rip), %rax
	movss	(%rdx,%rax), %xmm0
	cvttss2sil	%xmm0, %eax
	movl	%eax, t99(%rip)
//t100 = t99 + 2;
	movl	t99(%rip), %eax
	addl	$2, %eax
	movl	%eax, t100(%rip)
//t101 = (float)heap[t100];
	movl	t100(%rip), %eax
	cltq
	leaq	0(,%rax,4), %rdx
	leaq	heap(%rip), %rax
	movss	(%rdx,%rax), %xmm0
	movss	%xmm0, t101(%rip)
//printf("%f",(float)t101);
	movss	t101(%rip), %xmm0
	pxor	%xmm2, %xmm2
	cvtss2sd	%xmm0, %xmm2
	movq	%xmm2, %rax
	movq	%rax, %xmm0
	leaq	.LC40(%rip), %rdi
	movl	$1, %eax
	call	printf@PLT
//printf("LC42");
	leaq	.LC42(%rip), %rdi
	movl	$0, %eax
	call	printf@PLT
//printf("LC43");
	leaq	.LC43(%rip), %rdi
	movl	$0, %eax
	call	printf@PLT
//t102 = p + 0;
	movl	p(%rip), %eax
	addl	$0, %eax
	movl	%eax, t102(%rip)
//t103 = (int)stack[t102];
	movl	t102(%rip), %eax
	cltq
	leaq	0(,%rax,4), %rdx
	leaq	stack(%rip), %rax
	movss	(%rdx,%rax), %xmm0
	cvttss2sil	%xmm0, %eax
	movl	%eax, t103(%rip)
//t104 = t103 + 5;
	movl	t103(%rip), %eax
	addl	$5, %eax
	movl	%eax, t104(%rip)
//t105 = (int)heap[t104];
	movl	t104(%rip), %eax
	cltq
	leaq	0(,%rax,4), %rdx
	leaq	heap(%rip), %rax
	movss	(%rdx,%rax), %xmm0
	cvttss2sil	%xmm0, %eax
	movl	%eax, t105(%rip)
//printf("%d",(int)t105);
	movl	t105(%rip), %eax
	movl	%eax, %esi
	leaq	.LC39(%rip), %rdi
	movl	$0, %eax
	call	printf@PLT
//printf("LC44");
	leaq	.LC44(%rip), %rdi
	movl	$0, %eax
	call	printf@PLT
//printf("LC45");
	leaq	.LC45(%rip), %rdi
	movl	$0, %eax
	call	printf@PLT
//t106 = p + 0;
	movl	p(%rip), %eax
	addl	$0, %eax
	movl	%eax, t106(%rip)
//t107 = (int)stack[t106];
	movl	t106(%rip), %eax
	cltq
	leaq	0(,%rax,4), %rdx
	leaq	stack(%rip), %rax
	movss	(%rdx,%rax), %xmm0
	cvttss2sil	%xmm0, %eax
	movl	%eax, t107(%rip)
//t108 = t107 + 4;
	movl	t107(%rip), %eax
	addl	$4, %eax
	movl	%eax, t108(%rip)
//t109 = (int)heap[t108];
	movl	t108(%rip), %eax
	cltq
	leaq	0(,%rax,4), %rdx
	leaq	heap(%rip), %rax
	movss	(%rdx,%rax), %xmm0
	cvttss2sil	%xmm0, %eax
	movl	%eax, t109(%rip)
//printf("%d",(int)t109);
	movl	t109(%rip), %eax
	movl	%eax, %esi
	leaq	.LC39(%rip), %rdi
	movl	$0, %eax
	call	printf@PLT
//printf("LC46");
	leaq	.LC46(%rip), %rdi
	movl	$0, %eax
	call	printf@PLT
//printf("LC47");
	leaq	.LC47(%rip), %rdi
	movl	$0, %eax
	call	printf@PLT
//t110 = p + 0;
	movl	p(%rip), %eax
	addl	$0, %eax
	movl	%eax, t110(%rip)
//t111 = (int)stack[t110];
	movl	t110(%rip), %eax
	cltq
	leaq	0(,%rax,4), %rdx
	leaq	stack(%rip), %rax
	movss	(%rdx,%rax), %xmm0
	cvttss2sil	%xmm0, %eax
	movl	%eax, t111(%rip)
//t112 = t111 + 0;
	movl	t111(%rip), %eax
	addl	$0, %eax
	movl	%eax, t112(%rip)
//t113 = (float)heap[t112];
	movl	t112(%rip), %eax
	cltq
	leaq	0(,%rax,4), %rdx
	leaq	heap(%rip), %rax
	movss	(%rdx,%rax), %xmm0
	movss	%xmm0, t113(%rip)
//printf("%f",(float)t113);
	movss	t113(%rip), %xmm0
	pxor	%xmm2, %xmm2
	cvtss2sd	%xmm0, %xmm2
	movq	%xmm2, %rax
	movq	%rax, %xmm0
	leaq	.LC40(%rip), %rdi
	movl	$1, %eax
	call	printf@PLT
//printf("LC48");
	leaq	.LC48(%rip), %rdi
	movl	$0, %eax
	call	printf@PLT
//printf("LC49");
	leaq	.LC49(%rip), %rdi
	movl	$0, %eax
	call	printf@PLT
//t114 = p + 0;
	movl	p(%rip), %eax
	addl	$0, %eax
	movl	%eax, t114(%rip)
//t115 = (int)stack[t114];
	movl	t114(%rip), %eax
	cltq
	leaq	0(,%rax,4), %rdx
	leaq	stack(%rip), %rax
	movss	(%rdx,%rax), %xmm0
	cvttss2sil	%xmm0, %eax
	movl	%eax, t115(%rip)
//t116 = t115 + 1;
	movl	t115(%rip), %eax
	addl	$1, %eax
	movl	%eax, t116(%rip)
//t117 = (float)heap[t116];
	movl	t116(%rip), %eax
	cltq
	leaq	0(,%rax,4), %rdx
	leaq	heap(%rip), %rax
	movss	(%rdx,%rax), %xmm0
	movss	%xmm0, t117(%rip)
//printf("%f",(float)t117);
	movss	t117(%rip), %xmm0
	pxor	%xmm2, %xmm2
	cvtss2sd	%xmm0, %xmm2
	movq	%xmm2, %rax
	movq	%rax, %xmm0
	leaq	.LC40(%rip), %rdi
	movl	$1, %eax
	call	printf@PLT
//printf("LC50");
	leaq	.LC50(%rip), %rdi
	movl	$0, %eax
	call	printf@PLT
	popq	%rbp
	.cfi_def_cfa 7, 8
	ret
	.cfi_endproc
.LFE5:
	.size	JAVA_OperacionAlgebraica_escribirValores, .-JAVA_OperacionAlgebraica_escribirValores
	.section	.rodata
.LC51:
	.string	" %c"
.LC52:
	.string	"%c"
.LC53:
	.string	"%d"
.LC54:
	.string	"%f"
.LC55:
	.string "Desea Repetir el Proceso [s]i o [n]o"
	.text
	.globl   PY_Continuar_INDEFINIDO
	.type    PY_Continuar_INDEFINIDO, @function
PY_Continuar_INDEFINIDO:
.LFB6:
	.cfi_startproc
	pushq	%rbp
	.cfi_def_cfa_offset 16
	.cfi_offset 6, -16
	movq	%rsp, %rbp
	.cfi_def_cfa_register 6
//printf("LC55");
	leaq	.LC55(%rip), %rdi
	movl	$0, %eax
	call	printf@PLT
//scanf("%f",&t118);
	leaq	t118(%rip), %rsi
	leaq	.LC54(%rip), %rdi
	movl	$0, %eax
	call	__isoc99_scanf@PLT
//t119 = p + 1;
	movl	p(%rip), %eax
	addl	$1, %eax
	movl	%eax, t119(%rip)
//stack[t119] = (float) t118;
	movl	t119(%rip), %eax
	movss	t118(%rip), %xmm0
	cltq
	leaq	0(,%rax,4), %rdx
	leaq	stack(%rip), %rax
	movss	%xmm0, (%rdx,%rax)
//t120 = p + 1;
	movl	p(%rip), %eax
	addl	$1, %eax
	movl	%eax, t120(%rip)
//t121 = (float)stack[t120];
	movl	t120(%rip), %eax
	cltq
	leaq	0(,%rax,4), %rdx
	leaq	stack(%rip), %rax
	movss	(%rdx,%rax), %xmm0
	movss	%xmm0, t121(%rip)
//t122 = p + 0;
	movl	p(%rip), %eax
	addl	$0, %eax
	movl	%eax, t122(%rip)
//stack[t122] = (float) t121;
	movl	t122(%rip), %eax
	movss	t121(%rip), %xmm0
	cltq
	leaq	0(,%rax,4), %rdx
	leaq	stack(%rip), %rax
	movss	%xmm0, (%rdx,%rax)
//goto et3;
	jmp	.et3
//et3:
.et3:
//t00 = 0;
	movl	$0, t00(%rip)
	popq	%rbp
	.cfi_def_cfa 7, 8
	ret
	.cfi_endproc
.LFE6:
	.size	PY_Continuar_INDEFINIDO, .-PY_Continuar_INDEFINIDO
	.section	.rodata
.LC56:
	.string	" %c"
.LC57:
	.string	"%c"
.LC58:
	.string	"%d"
.LC59:
	.string	"%f"
	.text
	.globl   main
	.type    main, @function
main:
.LFB7:
	.cfi_startproc
	pushq	%rbp
	.cfi_def_cfa_offset 16
	.cfi_offset 6, -16
	movq	%rsp, %rbp
	.cfi_def_cfa_register 6
//t123 = 's';
	movb	$115, t123(%rip)
//t124 = p + 0;
	movl	p(%rip), %eax
	addl	$0, %eax
	movl	%eax, t124(%rip)
//stack[t124] = (float) t123;
	movzbl	t123(%rip), %edx
	movl	t124(%rip), %eax
	movsbl	%dl, %edx
	pxor	%xmm0, %xmm0
	cvtsi2ssl	%edx, %xmm0
	cltq
	leaq	0(,%rax,4), %rdx
	leaq	stack(%rip), %rax
	movss	%xmm0, (%rdx,%rax)
//p = p + 1;
	movl	p(%rip), %eax
	addl	$1, %eax
	movl	%eax, p(%rip)
//t125 = 0 + p;
	movl	p(%rip), %eax
	addl	$0, %eax
	movl	%eax, t125(%rip)
//stack[t125] = (float) h;
	movl	h(%rip), %edx
	movl	t125(%rip), %eax
	pxor	%xmm0, %xmm0
	cvtsi2ssl	%edx, %xmm0
	cltq
	leaq	0(,%rax,4), %rdx
	leaq	stack(%rip), %rax
	movss	%xmm0, (%rdx,%rax)
	call	JAVA_OperacionAlgebraica_OperacionAlgebraica
//p = p - 1;
	movl	p(%rip), %eax
	subl	$1, %eax
	movl	%eax, p(%rip)
//t126 = p + 1;
	movl	p(%rip), %eax
	addl	$1, %eax
	movl	%eax, t126(%rip)
//t127 = (float)stack[t126];
	movl	t126(%rip), %eax
	cltq
	leaq	0(,%rax,4), %rdx
	leaq	stack(%rip), %rax
	movss	(%rdx,%rax), %xmm0
	movss	%xmm0, t127(%rip)
//p = p + 2;
	movl	p(%rip), %eax
	addl	$2, %eax
	movl	%eax, p(%rip)
//t128 = 0 + p;
	movl	p(%rip), %eax
	addl	$0, %eax
	movl	%eax, t128(%rip)
//stack[t128] = (float) t127;
	movl	t128(%rip), %eax
	movss	t127(%rip), %xmm0
	cltq
	leaq	0(,%rax,4), %rdx
	leaq	stack(%rip), %rax
	movss	%xmm0, (%rdx,%rax)
	call	JAVA_OperacionAlgebraica_Suma
//p = p - 2;
	movl	p(%rip), %eax
	subl	$2, %eax
	movl	%eax, p(%rip)
//getchar();
	call	getchar@PLT
//t129 = p + 1;
	movl	p(%rip), %eax
	addl	$1, %eax
	movl	%eax, t129(%rip)
//t130 = (float)stack[t129];
	movl	t129(%rip), %eax
	cltq
	leaq	0(,%rax,4), %rdx
	leaq	stack(%rip), %rax
	movss	(%rdx,%rax), %xmm0
	movss	%xmm0, t130(%rip)
//p = p + 2;
	movl	p(%rip), %eax
	addl	$2, %eax
	movl	%eax, p(%rip)
//t131 = 0 + p;
	movl	p(%rip), %eax
	addl	$0, %eax
	movl	%eax, t131(%rip)
//stack[t131] = (float) t130;
	movl	t131(%rip), %eax
	movss	t130(%rip), %xmm0
	cltq
	leaq	0(,%rax,4), %rdx
	leaq	stack(%rip), %rax
	movss	%xmm0, (%rdx,%rax)
	call	JAVA_OperacionAlgebraica_Contador
//p = p - 2;
	movl	p(%rip), %eax
	subl	$2, %eax
	movl	%eax, p(%rip)
//getchar();
	call	getchar@PLT
//t132 = p + 1;
	movl	p(%rip), %eax
	addl	$1, %eax
	movl	%eax, t132(%rip)
//t133 = (float)stack[t132];
	movl	t132(%rip), %eax
	cltq
	leaq	0(,%rax,4), %rdx
	leaq	stack(%rip), %rax
	movss	(%rdx,%rax), %xmm0
	movss	%xmm0, t133(%rip)
//p = p + 2;
	movl	p(%rip), %eax
	addl	$2, %eax
	movl	%eax, p(%rip)
//t134 = 0 + p;
	movl	p(%rip), %eax
	addl	$0, %eax
	movl	%eax, t134(%rip)
//stack[t134] = (float) t133;
	movl	t134(%rip), %eax
	movss	t133(%rip), %xmm0
	cltq
	leaq	0(,%rax,4), %rdx
	leaq	stack(%rip), %rax
	movss	%xmm0, (%rdx,%rax)
	call	JAVA_OperacionAlgebraica_ElevarCuadrado
//p = p - 2;
	movl	p(%rip), %eax
	subl	$2, %eax
	movl	%eax, p(%rip)
//t135 = p + 1;
	movl	p(%rip), %eax
	addl	$1, %eax
	movl	%eax, t135(%rip)
//t136 = (float)stack[t135];
	movl	t135(%rip), %eax
	cltq
	leaq	0(,%rax,4), %rdx
	leaq	stack(%rip), %rax
	movss	(%rdx,%rax), %xmm0
	movss	%xmm0, t136(%rip)
//p = p + 2;
	movl	p(%rip), %eax
	addl	$2, %eax
	movl	%eax, p(%rip)
//t137 = 0 + p;
	movl	p(%rip), %eax
	addl	$0, %eax
	movl	%eax, t137(%rip)
//stack[t137] = (float) t136;
	movl	t137(%rip), %eax
	movss	t136(%rip), %xmm0
	cltq
	leaq	0(,%rax,4), %rdx
	leaq	stack(%rip), %rax
	movss	%xmm0, (%rdx,%rax)
	call	JAVA_OperacionAlgebraica_escribirValores
//p = p - 2;
	movl	p(%rip), %eax
	subl	$2, %eax
	movl	%eax, p(%rip)
//getchar();
	call	getchar@PLT
	movl	$0, %eax
	popq	%rbp
	.cfi_def_cfa 7, 8
	ret
	.cfi_endproc
.LFE7:
	.size	main, .-main
	.ident	"GCC: (GNU) 10.2.0"
	.section	.note.GNU-stack,"",@progbits
