	.file	"codigoC.c"
	.text
	.globl	stack
	.bss
	.align 32
	.type	stack, @object
	.size	stack, 40000
stack:
	.zero	40000
	.globl	heap
	.align 32
	.type	heap, @object
	.size	heap, 40000
heap:
	.zero	40000
	.globl	p
	.align 4
	.type	p, @object
	.size	p, 4
p:
	.zero	4
	.globl	h
	.align 4
	.type	h, @object
	.size	h, 4
h:
	.zero	4
	.globl	t00
	.align 4
	.type	t00, @object
	.size	t00, 4
t00:
	.zero	4
	.globl	t0
	.align 4
	.type	t0, @object
	.size	t0, 4
t0:
	.zero	4
	.globl	t1
	.align 4
	.type	t1, @object
	.size	t1, 4
t1:
	.zero	4
	.globl	t2
	.align 4
	.type	t2, @object
	.size	t2, 4
t2:
	.zero	4
	.globl	t3
	.align 4
	.type	t3, @object
	.size	t3, 4
t3:
	.zero	4
	.globl	t4
	.align 4
	.type	t4, @object
	.size	t4, 4
t4:
	.zero	4
	.globl	t5
	.align 4
	.type	t5, @object
	.size	t5, 4
t5:
	.zero	4
	.globl	t6
	.align 4
	.type	t6, @object
	.size	t6, 4
t6:
	.zero	4
	.globl	t7
	.align 4
	.type	t7, @object
	.size	t7, 4
t7:
	.zero	4
	.globl	t8
	.align 4
	.type	t8, @object
	.size	t8, 4
t8:
	.zero	4
	.globl	t9
	.align 4
	.type	t9, @object
	.size	t9, 4
t9:
	.zero	4
	.globl	t10
	.align 4
	.type	t10, @object
	.size	t10, 4
t10:
	.zero	4
	.globl	t11
	.align 4
	.type	t11, @object
	.size	t11, 4
t11:
	.zero	4
	.globl	t12
	.align 4
	.type	t12, @object
	.size	t12, 4
t12:
	.zero	4
	.globl	t13
	.align 4
	.type	t13, @object
	.size	t13, 4
t13:
	.zero	4
	.globl	t14
	.align 4
	.type	t14, @object
	.size	t14, 4
t14:
	.zero	4
	.globl	t15
	.align 4
	.type	t15, @object
	.size	t15, 4
t15:
	.zero	4
	.globl	t16
	.align 4
	.type	t16, @object
	.size	t16, 4
t16:
	.zero	4
	.globl	t17
	.align 4
	.type	t17, @object
	.size	t17, 4
t17:
	.zero	4
	.globl	t18
	.align 4
	.type	t18, @object
	.size	t18, 4
t18:
	.zero	4
	.globl	t19
	.align 4
	.type	t19, @object
	.size	t19, 4
t19:
	.zero	4
	.globl	t20
	.align 4
	.type	t20, @object
	.size	t20, 4
t20:
	.zero	4
	.globl	t21
	.align 4
	.type	t21, @object
	.size	t21, 4
t21:
	.zero	4
	.globl	t22
	.align 4
	.type	t22, @object
	.size	t22, 4
t22:
	.zero	4
	.globl	t23
	.align 4
	.type	t23, @object
	.size	t23, 4
t23:
	.zero	4
	.globl	t24
	.align 4
	.type	t24, @object
	.size	t24, 4
t24:
	.zero	4
	.globl	t25
	.align 4
	.type	t25, @object
	.size	t25, 4
t25:
	.zero	4
	.globl	t26
	.align 4
	.type	t26, @object
	.size	t26, 4
t26:
	.zero	4
	.globl	t27
	.align 4
	.type	t27, @object
	.size	t27, 4
t27:
	.zero	4
	.globl	t28
	.align 4
	.type	t28, @object
	.size	t28, 4
t28:
	.zero	4
	.globl	t29
	.align 4
	.type	t29, @object
	.size	t29, 4
t29:
	.zero	4
	.globl	t30
	.align 4
	.type	t30, @object
	.size	t30, 4
t30:
	.zero	4
	.globl	t31
	.align 4
	.type	t31, @object
	.size	t31, 4
t31:
	.zero	4
	.globl	t32
	.align 4
	.type	t32, @object
	.size	t32, 4
t32:
	.zero	4
	.globl	t33
	.align 4
	.type	t33, @object
	.size	t33, 4
t33:
	.zero	4
	.globl	t34
	.align 4
	.type	t34, @object
	.size	t34, 4
t34:
	.zero	4
	.globl	t35
	.align 4
	.type	t35, @object
	.size	t35, 4
t35:
	.zero	4
	.globl	t36
	.align 4
	.type	t36, @object
	.size	t36, 4
t36:
	.zero	4
	.globl	t37
	.align 4
	.type	t37, @object
	.size	t37, 4
t37:
	.zero	4
	.globl	t38
	.align 4
	.type	t38, @object
	.size	t38, 4
t38:
	.zero	4
	.globl	t39
	.align 4
	.type	t39, @object
	.size	t39, 4
t39:
	.zero	4
	.globl	t40
	.align 4
	.type	t40, @object
	.size	t40, 4
t40:
	.zero	4
	.globl	t41
	.align 4
	.type	t41, @object
	.size	t41, 4
t41:
	.zero	4
	.globl	t42
	.align 4
	.type	t42, @object
	.size	t42, 4
t42:
	.zero	4
	.globl	t43
	.align 4
	.type	t43, @object
	.size	t43, 4
t43:
	.zero	4
	.globl	t44
	.align 4
	.type	t44, @object
	.size	t44, 4
t44:
	.zero	4
	.globl	t45
	.align 4
	.type	t45, @object
	.size	t45, 4
t45:
	.zero	4
	.globl	t46
	.align 4
	.type	t46, @object
	.size	t46, 4
t46:
	.zero	4
	.globl	t47
	.align 4
	.type	t47, @object
	.size	t47, 4
t47:
	.zero	4
	.globl	t48
	.align 4
	.type	t48, @object
	.size	t48, 4
t48:
	.zero	4
	.globl	t49
	.align 4
	.type	t49, @object
	.size	t49, 4
t49:
	.zero	4
	.globl	t50
	.align 4
	.type	t50, @object
	.size	t50, 4
t50:
	.zero	4
	.globl	t51
	.align 4
	.type	t51, @object
	.size	t51, 4
t51:
	.zero	4
	.globl	t52
	.align 4
	.type	t52, @object
	.size	t52, 4
t52:
	.zero	4
	.globl	t53
	.align 4
	.type	t53, @object
	.size	t53, 4
t53:
	.zero	4
	.globl	t54
	.align 4
	.type	t54, @object
	.size	t54, 4
t54:
	.zero	4
	.globl	t55
	.align 4
	.type	t55, @object
	.size	t55, 4
t55:
	.zero	4
	.globl	t56
	.align 4
	.type	t56, @object
	.size	t56, 4
t56:
	.zero	4
	.globl	t57
	.align 4
	.type	t57, @object
	.size	t57, 4
t57:
	.zero	4
	.globl	t58
	.align 4
	.type	t58, @object
	.size	t58, 4
t58:
	.zero	4
	.globl	t59
	.align 4
	.type	t59, @object
	.size	t59, 4
t59:
	.zero	4
	.globl	t60
	.align 4
	.type	t60, @object
	.size	t60, 4
t60:
	.zero	4
	.globl	t61
	.align 4
	.type	t61, @object
	.size	t61, 4
t61:
	.zero	4
	.globl	t62
	.align 4
	.type	t62, @object
	.size	t62, 4
t62:
	.zero	4
	.globl	t63
	.align 4
	.type	t63, @object
	.size	t63, 4
t63:
	.zero	4
	.globl	t64
	.align 4
	.type	t64, @object
	.size	t64, 4
t64:
	.zero	4
	.globl	t65
	.align 4
	.type	t65, @object
	.size	t65, 4
t65:
	.zero	4
	.globl	t66
	.align 4
	.type	t66, @object
	.size	t66, 4
t66:
	.zero	4
	.globl	t67
	.align 4
	.type	t67, @object
	.size	t67, 4
t67:
	.zero	4
	.globl	t68
	.align 4
	.type	t68, @object
	.size	t68, 4
t68:
	.zero	4
	.globl	t69
	.align 4
	.type	t69, @object
	.size	t69, 4
t69:
	.zero	4
	.globl	t70
	.align 4
	.type	t70, @object
	.size	t70, 4
t70:
	.zero	4
	.globl	t71
	.align 4
	.type	t71, @object
	.size	t71, 4
t71:
	.zero	4
	.globl	t72
	.align 4
	.type	t72, @object
	.size	t72, 4
t72:
	.zero	4
	.globl	t73
	.align 4
	.type	t73, @object
	.size	t73, 4
t73:
	.zero	4
	.globl	t74
	.align 4
	.type	t74, @object
	.size	t74, 4
t74:
	.zero	4
	.globl	t75
	.align 4
	.type	t75, @object
	.size	t75, 4
t75:
	.zero	4
	.globl	t76
	.align 4
	.type	t76, @object
	.size	t76, 4
t76:
	.zero	4
	.globl	t77
	.align 4
	.type	t77, @object
	.size	t77, 4
t77:
	.zero	4
	.globl	t78
	.align 4
	.type	t78, @object
	.size	t78, 4
t78:
	.zero	4
	.globl	t79
	.align 4
	.type	t79, @object
	.size	t79, 4
t79:
	.zero	4
	.globl	t80
	.align 4
	.type	t80, @object
	.size	t80, 4
t80:
	.zero	4
	.globl	t81
	.align 4
	.type	t81, @object
	.size	t81, 4
t81:
	.zero	4
	.globl	t82
	.align 4
	.type	t82, @object
	.size	t82, 4
t82:
	.zero	4
	.globl	t83
	.align 4
	.type	t83, @object
	.size	t83, 4
t83:
	.zero	4
	.globl	t84
	.align 4
	.type	t84, @object
	.size	t84, 4
t84:
	.zero	4
	.globl	t85
	.align 4
	.type	t85, @object
	.size	t85, 4
t85:
	.zero	4
	.globl	t86
	.align 4
	.type	t86, @object
	.size	t86, 4
t86:
	.zero	4
	.globl	t87
	.align 4
	.type	t87, @object
	.size	t87, 4
t87:
	.zero	4
	.globl	t88
	.align 4
	.type	t88, @object
	.size	t88, 4
t88:
	.zero	4
	.globl	t89
	.align 4
	.type	t89, @object
	.size	t89, 4
t89:
	.zero	4
	.globl	t90
	.align 4
	.type	t90, @object
	.size	t90, 4
t90:
	.zero	4
	.globl	t91
	.align 4
	.type	t91, @object
	.size	t91, 4
t91:
	.zero	4
	.globl	t92
	.align 4
	.type	t92, @object
	.size	t92, 4
t92:
	.zero	4
	.globl	t93
	.align 4
	.type	t93, @object
	.size	t93, 4
t93:
	.zero	4
	.globl	t94
	.align 4
	.type	t94, @object
	.size	t94, 4
t94:
	.zero	4
	.globl	t95
	.align 4
	.type	t95, @object
	.size	t95, 4
t95:
	.zero	4
	.globl	t96
	.align 4
	.type	t96, @object
	.size	t96, 4
t96:
	.zero	4
	.globl	t97
	.align 4
	.type	t97, @object
	.size	t97, 4
t97:
	.zero	4
	.globl	t98
	.align 4
	.type	t98, @object
	.size	t98, 4
t98:
	.zero	4
	.globl	t99
	.align 4
	.type	t99, @object
	.size	t99, 4
t99:
	.zero	4
	.globl	t100
	.align 4
	.type	t100, @object
	.size	t100, 4
t100:
	.zero	4
	.globl	t101
	.align 4
	.type	t101, @object
	.size	t101, 4
t101:
	.zero	4
	.globl	t102
	.align 4
	.type	t102, @object
	.size	t102, 4
t102:
	.zero	4
	.globl	t103
	.align 4
	.type	t103, @object
	.size	t103, 4
t103:
	.zero	4
	.globl	t104
	.align 4
	.type	t104, @object
	.size	t104, 4
t104:
	.zero	4
	.globl	t105
	.align 4
	.type	t105, @object
	.size	t105, 4
t105:
	.zero	4
	.globl	t106
	.align 4
	.type	t106, @object
	.size	t106, 4
t106:
	.zero	4
	.globl	t107
	.align 4
	.type	t107, @object
	.size	t107, 4
t107:
	.zero	4
	.globl	t108
	.align 4
	.type	t108, @object
	.size	t108, 4
t108:
	.zero	4
	.globl	t109
	.align 4
	.type	t109, @object
	.size	t109, 4
t109:
	.zero	4
	.globl	t110
	.align 4
	.type	t110, @object
	.size	t110, 4
t110:
	.zero	4
	.globl	t111
	.align 4
	.type	t111, @object
	.size	t111, 4
t111:
	.zero	4
	.globl	t112
	.align 4
	.type	t112, @object
	.size	t112, 4
t112:
	.zero	4
	.globl	t113
	.align 4
	.type	t113, @object
	.size	t113, 4
t113:
	.zero	4
	.globl	t114
	.align 4
	.type	t114, @object
	.size	t114, 4
t114:
	.zero	4
	.globl	t115
	.align 4
	.type	t115, @object
	.size	t115, 4
t115:
	.zero	4
	.globl	t116
	.align 4
	.type	t116, @object
	.size	t116, 4
t116:
	.zero	4
	.globl	t117
	.align 4
	.type	t117, @object
	.size	t117, 4
t117:
	.zero	4
	.globl	t118
	.align 4
	.type	t118, @object
	.size	t118, 4
t118:
	.zero	4
	.globl	t119
	.align 4
	.type	t119, @object
	.size	t119, 4
t119:
	.zero	4
	.globl	t120
	.align 4
	.type	t120, @object
	.size	t120, 4
t120:
	.zero	4
	.globl	t121
	.align 4
	.type	t121, @object
	.size	t121, 4
t121:
	.zero	4
	.globl	t122
	.align 4
	.type	t122, @object
	.size	t122, 4
t122:
	.zero	4
	.globl	t123
	.align 4
	.type	t123, @object
	.size	t123, 4
t123:
	.zero	4
	.globl	t124
	.align 4
	.type	t124, @object
	.size	t124, 4
t124:
	.zero	4
	.globl	t125
	.align 4
	.type	t125, @object
	.size	t125, 4
t125:
	.zero	4
	.globl	t126
	.align 4
	.type	t126, @object
	.size	t126, 4
t126:
	.zero	4
	.globl	t127
	.align 4
	.type	t127, @object
	.size	t127, 4
t127:
	.zero	4
	.globl	t128
	.align 4
	.type	t128, @object
	.size	t128, 4
t128:
	.zero	4
	.globl	t129
	.align 4
	.type	t129, @object
	.size	t129, 4
t129:
	.zero	4
	.globl	t130
	.align 4
	.type	t130, @object
	.size	t130, 4
t130:
	.zero	4
	.globl	t131
	.align 4
	.type	t131, @object
	.size	t131, 4
t131:
	.zero	4
	.globl	t132
	.align 4
	.type	t132, @object
	.size	t132, 4
t132:
	.zero	4
	.globl	t133
	.align 4
	.type	t133, @object
	.size	t133, 4
t133:
	.zero	4
	.globl	t134
	.align 4
	.type	t134, @object
	.size	t134, 4
t134:
	.zero	4
	.globl	t135
	.align 4
	.type	t135, @object
	.size	t135, 4
t135:
	.zero	4
	.globl	t136
	.align 4
	.type	t136, @object
	.size	t136, 4
t136:
	.zero	4
	.globl	t137
	.align 4
	.type	t137, @object
	.size	t137, 4
t137:
	.zero	4
	.globl	t138
	.align 4
	.type	t138, @object
	.size	t138, 4
t138:
	.zero	4
	.globl	t139
	.align 4
	.type	t139, @object
	.size	t139, 4
t139:
	.zero	4
	.globl	t140
	.align 4
	.type	t140, @object
	.size	t140, 4
t140:
	.zero	4
	.globl	t141
	.align 4
	.type	t141, @object
	.size	t141, 4
t141:
	.zero	4
	.globl	t142
	.align 4
	.type	t142, @object
	.size	t142, 4
t142:
	.zero	4
	.globl	t143
	.align 4
	.type	t143, @object
	.size	t143, 4
t143:
	.zero	4
	.globl	t144
	.align 4
	.type	t144, @object
	.size	t144, 4
t144:
	.zero	4
	.globl	t145
	.align 4
	.type	t145, @object
	.size	t145, 4
t145:
	.zero	4
	.globl	t146
	.align 4
	.type	t146, @object
	.size	t146, 4
t146:
	.zero	4
	.globl	t147
	.align 4
	.type	t147, @object
	.size	t147, 4
t147:
	.zero	4
	.globl	t148
	.align 4
	.type	t148, @object
	.size	t148, 4
t148:
	.zero	4
	.globl	t149
	.align 4
	.type	t149, @object
	.size	t149, 4
t149:
	.zero	4
	.globl	t150
	.align 4
	.type	t150, @object
	.size	t150, 4
t150:
	.zero	4
	.globl	t151
	.align 4
	.type	t151, @object
	.size	t151, 4
t151:
	.zero	4
	.globl	t152
	.align 4
	.type	t152, @object
	.size	t152, 4
t152:
	.zero	4
	.globl	t153
	.align 4
	.type	t153, @object
	.size	t153, 4
t153:
	.zero	4
	.globl	t154
	.align 4
	.type	t154, @object
	.size	t154, 4
t154:
	.zero	4
	.globl	t155
	.align 4
	.type	t155, @object
	.size	t155, 4
t155:
	.zero	4
	.globl	t156
	.align 4
	.type	t156, @object
	.size	t156, 4
t156:
	.zero	4
	.globl	t157
	.align 4
	.type	t157, @object
	.size	t157, 4
t157:
	.zero	4
	.globl	t158
	.align 4
	.type	t158, @object
	.size	t158, 4
t158:
	.zero	4
	.globl	t159
	.align 4
	.type	t159, @object
	.size	t159, 4
t159:
	.zero	4
	.globl	t160
	.align 4
	.type	t160, @object
	.size	t160, 4
t160:
	.zero	4
	.globl	t161
	.align 4
	.type	t161, @object
	.size	t161, 4
t161:
	.zero	4
	.globl	t162
	.align 4
	.type	t162, @object
	.size	t162, 4
t162:
	.zero	4
	.globl	t163
	.align 4
	.type	t163, @object
	.size	t163, 4
t163:
	.zero	4
	.globl	t164
	.align 4
	.type	t164, @object
	.size	t164, 4
t164:
	.zero	4
	.globl	t165
	.align 4
	.type	t165, @object
	.size	t165, 4
t165:
	.zero	4
	.globl	t166
	.align 4
	.type	t166, @object
	.size	t166, 4
t166:
	.zero	4
	.globl	t167
	.align 4
	.type	t167, @object
	.size	t167, 4
t167:
	.zero	4
	.globl	t168
	.align 4
	.type	t168, @object
	.size	t168, 4
t168:
	.zero	4
	.globl	t169
	.align 4
	.type	t169, @object
	.size	t169, 4
t169:
	.zero	4
	.globl	t170
	.align 4
	.type	t170, @object
	.size	t170, 4
t170:
	.zero	4
	.globl	t171
	.align 4
	.type	t171, @object
	.size	t171, 4
t171:
	.zero	4
	.globl	t172
	.align 4
	.type	t172, @object
	.size	t172, 4
t172:
	.zero	4
	.globl	t173
	.align 4
	.type	t173, @object
	.size	t173, 4
t173:
	.zero	4
	.globl	t174
	.align 4
	.type	t174, @object
	.size	t174, 4
t174:
	.zero	4
	.globl	t175
	.align 4
	.type	t175, @object
	.size	t175, 4
t175:
	.zero	4
	.globl	t176
	.align 4
	.type	t176, @object
	.size	t176, 4
t176:
	.zero	4
	.globl	t177
	.align 4
	.type	t177, @object
	.size	t177, 4
t177:
	.zero	4
	.globl	t178
	.align 4
	.type	t178, @object
	.size	t178, 4
t178:
	.zero	4
	.globl	t179
	.align 4
	.type	t179, @object
	.size	t179, 4
t179:
	.zero	4
	.globl	t180
	.align 4
	.type	t180, @object
	.size	t180, 4
t180:
	.zero	4
	.globl	t181
	.align 4
	.type	t181, @object
	.size	t181, 4
t181:
	.zero	4
	.globl	t182
	.align 4
	.type	t182, @object
	.size	t182, 4
t182:
	.zero	4
	.globl	t183
	.align 4
	.type	t183, @object
	.size	t183, 4
t183:
	.zero	4
	.globl	t184
	.align 4
	.type	t184, @object
	.size	t184, 4
t184:
	.zero	4
	.globl	t185
	.align 4
	.type	t185, @object
	.size	t185, 4
t185:
	.zero	4
	.globl	t186
	.align 4
	.type	t186, @object
	.size	t186, 4
t186:
	.zero	4
	.globl	t187
	.align 4
	.type	t187, @object
	.size	t187, 4
t187:
	.zero	4
	.globl	t188
	.align 4
	.type	t188, @object
	.size	t188, 4
t188:
	.zero	4
	.text
	.globl	VB_Incremento_ENTERO
	.type	VB_Incremento_ENTERO, @function
VB_Incremento_ENTERO:
.LFB0:
	.cfi_startproc
	pushq	%rbp
	.cfi_def_cfa_offset 16
	.cfi_offset 6, -16
	movq	%rsp, %rbp
	.cfi_def_cfa_register 6
	movl	p(%rip), %eax
	addl	$2, %eax
	movl	%eax, t0(%rip)
	movl	t0(%rip), %eax
	cltq
	leaq	0(,%rax,4), %rdx
	leaq	stack(%rip), %rax
	movss	(%rdx,%rax), %xmm0
	cvttss2sil	%xmm0, %eax
	movl	%eax, t1(%rip)
	movl	$1, t2(%rip)
	movl	t1(%rip), %edx
	movl	t2(%rip), %eax
	addl	%edx, %eax
	movl	%eax, t3(%rip)
	movl	p(%rip), %eax
	addl	$2, %eax
	movl	%eax, t4(%rip)
	movl	t3(%rip), %edx
	movl	t4(%rip), %eax
	pxor	%xmm0, %xmm0
	cvtsi2ssl	%edx, %xmm0
	cltq
	leaq	0(,%rax,4), %rdx
	leaq	stack(%rip), %rax
	movss	%xmm0, (%rdx,%rax)
	movl	p(%rip), %eax
	addl	$2, %eax
	movl	%eax, t5(%rip)
	movl	t5(%rip), %eax
	cltq
	leaq	0(,%rax,4), %rdx
	leaq	stack(%rip), %rax
	movss	(%rdx,%rax), %xmm0
	cvttss2sil	%xmm0, %eax
	movl	%eax, t6(%rip)
	movl	p(%rip), %eax
	movl	%eax, t7(%rip)
	movl	t6(%rip), %edx
	movl	t7(%rip), %eax
	pxor	%xmm0, %xmm0
	cvtsi2ssl	%edx, %xmm0
	cltq
	leaq	0(,%rax,4), %rdx
	leaq	stack(%rip), %rax
	movss	%xmm0, (%rdx,%rax)
	nop
.L2:
	movl	$0, t00(%rip)
	nop
	popq	%rbp
	.cfi_def_cfa 7, 8
	ret
	.cfi_endproc
.LFE0:
	.size	VB_Incremento_ENTERO, .-VB_Incremento_ENTERO
	.section	.rodata
.LC0:
	.string	"Arreglo antes de ordenarse"
.LC1:
	.string	"Arreglo depues de ordenarse"
.LC2:
	.string	"default"
	.text
	.globl	PY_Mensaje_INDEFINIDO
	.type	PY_Mensaje_INDEFINIDO, @function
PY_Mensaje_INDEFINIDO:
.LFB1:
	.cfi_startproc
	pushq	%rbp
	.cfi_def_cfa_offset 16
	.cfi_offset 6, -16
	movq	%rsp, %rbp
	.cfi_def_cfa_register 6
	movl	p(%rip), %eax
	addl	$1, %eax
	movl	%eax, t8(%rip)
	movl	t8(%rip), %eax
	cltq
	leaq	0(,%rax,4), %rdx
	leaq	stack(%rip), %rax
	movss	(%rdx,%rax), %xmm0
	movss	%xmm0, t9(%rip)
	movl	$1, t10(%rip)
	movl	t10(%rip), %eax
	pxor	%xmm0, %xmm0
	cvtsi2ssl	%eax, %xmm0
	movss	t9(%rip), %xmm1
	ucomiss	%xmm1, %xmm0
	jp	.L13
	ucomiss	%xmm1, %xmm0
	je	.L14
	jmp	.L13
.L14:
	nop
.L6:
	leaq	.LC0(%rip), %rdi
	call	puts@PLT
	jmp	.L8
.L13:
	nop
.L7:
	movl	p(%rip), %eax
	addl	$1, %eax
	movl	%eax, t11(%rip)
	movl	t11(%rip), %eax
	cltq
	leaq	0(,%rax,4), %rdx
	leaq	stack(%rip), %rax
	movss	(%rdx,%rax), %xmm0
	movss	%xmm0, t12(%rip)
	movl	$2, t13(%rip)
	movl	t13(%rip), %eax
	pxor	%xmm0, %xmm0
	cvtsi2ssl	%eax, %xmm0
	movss	t12(%rip), %xmm1
	ucomiss	%xmm1, %xmm0
	jp	.L15
	ucomiss	%xmm1, %xmm0
	je	.L16
	jmp	.L15
.L16:
	nop
.L11:
	leaq	.LC1(%rip), %rdi
	call	puts@PLT
	jmp	.L8
.L15:
	nop
.L12:
	leaq	.LC2(%rip), %rdi
	call	puts@PLT
.L8:
	movl	$0, t00(%rip)
	nop
	popq	%rbp
	.cfi_def_cfa 7, 8
	ret
	.cfi_endproc
.LFE1:
	.size	PY_Mensaje_INDEFINIDO, .-PY_Mensaje_INDEFINIDO
	.section	.rodata
.LC3:
	.string	"arreglo["
.LC4:
	.string	"%f"
.LC5:
	.string	"] = "
	.text
	.globl	PY_Mostrar_INDEFINIDO_INDEFINIDO
	.type	PY_Mostrar_INDEFINIDO_INDEFINIDO, @function
PY_Mostrar_INDEFINIDO_INDEFINIDO:
.LFB2:
	.cfi_startproc
	pushq	%rbp
	.cfi_def_cfa_offset 16
	.cfi_offset 6, -16
	movq	%rsp, %rbp
	.cfi_def_cfa_register 6
	leaq	.LC3(%rip), %rdi
	movl	$0, %eax
	call	printf@PLT
	movl	p(%rip), %t146
	addl	$1, %eax
	movl	%eax, t14(%rip)
	movl	t14(%rip), %eax
	cltq
	leaq	0(,%rax,4), %rdx
	leaq	stack(%rip), %rax
	movss	(%rdx,%rax), %xmm0
	movss	%xmm0, t15(%rip)
	movss	t15(%rip), %xmm0
	pxor	%xmm1, %xmm1
	cvtss2sd	%xmm0, %xmm1
	movq	%xmm1, %rax
	movq	%rax, %xmm0
	leaq	.LC4(%rip), %rdi
	movl	$1, %eax
	call	printf@PLT
	leaq	.LC5(%rip), %rdi
	movl	$0, %eax
	call	printf@PLT
	movl	p(%rip), %eax
	addl	$2, %eax
	movl	%eax, t16(%rip)
	movl	t16(%rip), %eax
	cltq
	leaq	0(,%rax,4), %rdx
	leaq	stack(%rip), %rax
	movss	(%rdx,%rax), %xmm0
	movss	%xmm0, t17(%rip)
	movss	t17(%rip), %xmm0
	pxor	%xmm2, %xmm2
	cvtss2sd	%xmm0, %xmm2
	movq	%xmm2, %rax
	movq	%rax, %xmm0
	leaq	.LC4(%rip), %rdi
	movl	$1, %eax
	call	printf@PLT
	movl	$10, %edi
	call	putchar@PLT
.L18:
	movl	$0, t00(%rip)
	nop
	popq	%rbp
	.cfi_def_cfa 7, 8
	ret
	.cfi_endproc
.LFE2:
	.size	PY_Mostrar_INDEFINIDO_INDEFINIDO, .-PY_Mostrar_INDEFINIDO_INDEFINIDO
	.globl	main
	.type	main, @function
main:
.LFB3:
	.cfi_startproc
	pushq	%rbp
	.cfi_def_cfa_offset 16
	.cfi_offset 6, -16
	movq	%rsp, %rbp
	.cfi_def_cfa_register 6
	movl	$10, t18(%rip)
	movl	p(%rip), %eax
	movl	%eax, t19(%rip)
	movl	t18(%rip), %edx
	movl	t19(%rip), %eax
	pxor	%xmm0, %xmm0
	cvtsi2ssl	%edx, %xmm0
	cltq
	leaq	0(,%rax,4), %rdx
	leaq	stack(%rip), %rax
	movss	%xmm0, (%rdx,%rax)
	movl	p(%rip), %eax
	movl	%eax, t20(%rip)
	movl	t20(%rip), %eax
	cltq
	leaq	0(,%rax,4), %rdx
	leaq	stack(%rip), %rax
	movss	(%rdx,%rax), %xmm0
	cvttss2sil	%xmm0, %eax
	movl	%eax, t21(%rip)
	movl	t21(%rip), %eax
	movl	%eax, t22(%rip)
	movl	t22(%rip), %eax
	addl	$1, %eax
	movl	%eax, t23(%rip)
	movl	$0, t24(%rip)
	movl	p(%rip), %edx
	movl	t23(%rip), %eax
	addl	%edx, %eax
	movl	%eax, t25(%rip)
	movl	t24(%rip), %edx
	movl	t25(%rip), %eax
	pxor	%xmm0, %xmm0
	cvtsi2ssl	%edx, %xmm0
	cltq
	leaq	0(,%rax,4), %rdx
	leaq	stack(%rip), %rax
	movss	%xmm0, (%rdx,%rax)
	movl	t23(%rip), %eax
	addl	$1, %eax
	movl	%eax, t26(%rip)
	movl	$0, t27(%rip)
	movl	p(%rip), %edx
	movl	t26(%rip), %eax
	addl	%edx, %eax
	movl	%eax, t28(%rip)
	movl	t27(%rip), %edx
	movl	t28(%rip), %eax
	pxor	%xmm0, %xmm0
	cvtsi2ssl	%edx, %xmm0
	cltq
	leaq	0(,%rax,4), %rdx
	leaq	stack(%rip), %rax
	movss	%xmm0, (%rdx,%rax)
	movl	t26(%rip), %eax
	addl	$1, %eax
	movl	%eax, t29(%rip)
	movl	$0, t30(%rip)
	movl	t30(%rip), %eax
	movl	%eax, t31(%rip)
	movl	t31(%rip), %eax
	addl	$1, %eax
	movl	%eax, t32(%rip)
	movl	$7, t33(%rip)
	movl	t33(%rip), %edx
	movl	t32(%rip), %eax
	pxor	%xmm0, %xmm0
	cvtsi2ssl	%edx, %xmm0
	cltq
	leaq	0(,%rax,4), %rdx
	leaq	stack(%rip), %rax
	movss	%xmm0, (%rdx,%rax)
	movl	$1, t34(%rip)
	movl	t34(%rip), %eax
	movl	%eax, t35(%rip)
	movl	t35(%rip), %eax
	addl	$1, %eax
	movl	%eax, t36(%rip)
	movl	$14, t37(%rip)
	movl	t37(%rip), %edx
	movl	t36(%rip), %eax
	pxor	%xmm0, %xmm0
	cvtsi2ssl	%edx, %xmm0
	cltq
	leaq	0(,%rax,4), %rdx
	leaq	stack(%rip), %rax
	movss	%xmm0, (%rdx,%rax)
	movl	$2, t38(%rip)
	movl	t38(%rip), %eax
	movl	%eax, t39(%rip)
	movl	t39(%rip), %eax
	addl	$1, %eax
	movl	%eax, t40(%rip)
	movl	$18, t41(%rip)
	movl	t41(%rip), %edx
	movl	t40(%rip), %eax
	pxor	%xmm0, %xmm0
	cvtsi2ssl	%edx, %xmm0
	cltq
	leaq	0(,%rax,4), %rdx
	leaq	stack(%rip), %rax
	movss	%xmm0, (%rdx,%rax)
	movl	$3, t42(%rip)
	movl	t42(%rip), %eax
	movl	%eax, t43(%rip)
	movl	t43(%rip), %eax
	addl	$1, %eax
	movl	%eax, t44(%rip)
	movl	$19, t45(%rip)
	movl	t45(%rip), %edx
	movl	t44(%rip), %eax
	pxor	%xmm0, %xmm0
	cvtsi2ssl	%edx, %xmm0
	cltq
	leaq	0(,%rax,4), %rdx
	leaq	stack(%rip), %rax
	movss	%xmm0, (%rdx,%rax)
	movl	$4, t46(%rip)
	movl	t46(%rip), %eax
	movl	%eax, t47(%rip)
	movl	t47(%rip), %eax
	addl	$1, %eax
	movl	%eax, t48(%rip)
	movl	$21, t49(%rip)
	movl	t49(%rip), %edx
	movl	t48(%rip), %eax
	pxor	%xmm0, %xmm0
	cvtsi2ssl	%edx, %xmm0
	cltq
	leaq	0(,%rax,4), %rdx
	leaq	stack(%rip), %rax
	movss	%xmm0, (%rdx,%rax)
	movl	$5, t50(%rip)
	movl	t50(%rip), %eax
	movl	%eax, t51(%rip)
	movl	t51(%rip), %eax
	addl	$1, %eax
	movl	%eax, t52(%rip)
	movl	$2, t53(%rip)
	movl	t53(%rip), %edx
	movl	t52(%rip), %eax
	pxor	%xmm0, %xmm0
	cvtsi2ssl	%edx, %xmm0
	cltq
	leaq	0(,%rax,4), %rdx
	leaq	stack(%rip), %rax
	movss	%xmm0, (%rdx,%rax)
	movl	$6, t54(%rip)
	movl	t54(%rip), %eax
	movl	%eax, t55(%rip)
	movl	t55(%rip), %eax
	addl	$1, %eax
	movl	%eax, t56(%rip)
	movl	$9, t57(%rip)
	movl	t57(%rip), %edx
	movl	t56(%rip), %eax
	pxor	%xmm0, %xmm0
	cvtsi2ssl	%edx, %xmm0
	cltq
	leaq	0(,%rax,4), %rdx
	leaq	stack(%rip), %rax
	movss	%xmm0, (%rdx,%rax)
	movl	$7, t58(%rip)
	movl	t58(%rip), %eax
	movl	%eax, t59(%rip)
	movl	t59(%rip), %eax
	addl	$1, %eax
	movl	%eax, t60(%rip)
	movl	$24, t61(%rip)
	movl	t61(%rip), %edx
	movl	t60(%rip), %eax
	pxor	%xmm0, %xmm0
	cvtsi2ssl	%edx, %xmm0
	cltq
	leaq	0(,%rax,4), %rdx
	leaq	stack(%rip), %rax
	movss	%xmm0, (%rdx,%rax)
	movl	$8, t62(%rip)
	movl	t62(%rip), %eax
	movl	%eax, t63(%rip)
	movl	t63(%rip), %eax
	addl	$1, %eax
	movl	%eax, t64(%rip)
	movl	$29, t65(%rip)
	movl	t65(%rip), %edx
	movl	t64(%rip), %eax
	pxor	%xmm0, %xmm0
	cvtsi2ssl	%edx, %xmm0
	cltq
	leaq	0(,%rax,4), %rdx
	leaq	stack(%rip), %rax
	movss	%xmm0, (%rdx,%rax)
	movl	$9, t66(%rip)
	movl	t66(%rip), %eax
	movl	%eax, t67(%rip)
	movl	t67(%rip), %eax
	addl	$1, %eax
	movl	%eax, t68(%rip)
	movl	$47, t69(%rip)
	movl	t69(%rip), %edx
	movl	t68(%rip), %eax
	pxor	%xmm0, %xmm0
	cvtsi2ssl	%edx, %xmm0
	cltq
	leaq	0(,%rax,4), %rdx
	leaq	stack(%rip), %rax
	movss	%xmm0, (%rdx,%rax)
	movl	$1, t70(%rip)
	movl	t29(%rip), %eax
	addl	$1, %eax
	movl	%eax, t71(%rip)
	movl	p(%rip), %edx
	movl	t71(%rip), %eax
	addl	%edx, %eax
	movl	%eax, p(%rip)
	movl	p(%rip), %eax
	addl	$1, %eax
	movl	%eax, t72(%rip)
	movl	t70(%rip), %edx
	movl	t72(%rip), %eax
	pxor	%xmm0, %xmm0
	cvtsi2ssl	%edx, %xmm0
	cltq
	leaq	0(,%rax,4), %rdx
	leaq	stack(%rip), %rax
	movss	%xmm0, (%rdx,%rax)
	call	PY_Mensaje_INDEFINIDO
	movl	t29(%rip), %eax
	addl	$1, %eax
	movl	%eax, t73(%rip)
	movl	p(%rip), %eax
	movl	t73(%rip), %edx
	subl	%edx, %eax
	movl	%eax, p(%rip)
	movl	$0, t74(%rip)
	movl	p(%rip), %edx
	movl	t23(%rip), %eax
	addl	%edx, %eax
	movl	%eax, t75(%rip)
	movl	t74(%rip), %edx
	movl	t75(%rip), %eax
	pxor	%xmm0, %xmm0
	cvtsi2ssl	%edx, %xmm0
	cltq
	leaq	0(,%rax,4), %rdx
	leaq	stack(%rip), %rax
	movss	%xmm0, (%rdx,%rax)
.L20:
	movl	p(%rip), %edx
	movl	t23(%rip), %eax
	addl	%edx, %eax
	movl	%eax, t76(%rip)
	movl	t76(%rip), %eax
	cltq
	leaq	0(,%rax,4), %rdx
	leaq	stack(%rip), %rax
	movss	(%rdx,%rax), %xmm0
	cvttss2sil	%xmm0, %eax
	movl	%eax, t77(%rip)
	movl	p(%rip), %eax
	movl	%eax, t78(%rip)
	movl	t78(%rip), %eax
	cltq
	leaq	0(,%rax,4), %rdx
	leaq	stack(%rip), %rax
	movss	(%rdx,%rax), %xmm0
	cvttss2sil	%xmm0, %eax
	movl	%eax, t79(%rip)
	movl	t77(%rip), %edx
	movl	t79(%rip), %eax
	cmpl	%eax, %edx
	jge	.L40
	nop
.L22:
	movl	p(%rip), %edx
	movl	t23(%rip), %eax
	addl	%edx, %eax
	movl	%eax, t80(%rip)
	movl	t80(%rip), %eax
	cltq
	leaq	0(,%rax,4), %rdx
	leaq	stack(%rip), %rax
	movss	(%rdx,%rax), %xmm0
	cvttss2sil	%xmm0, %eax
	movl	%eax, t81(%rip)
	movl	p(%rip), %edx
	movl	t23(%rip), %eax
	addl	%edx, %eax
	movl	%eax, t82(%rip)
	movl	t82(%rip), %eax
	cltq
	leaq	0(,%rax,4), %rdx
	leaq	stack(%rip), %rax
	movss	(%rdx,%rax), %xmm0
	cvttss2sil	%xmm0, %eax
	movl	%eax, t83(%rip)
	movl	t83(%rip), %eax
	movl	%eax, t84(%rip)
	movl	t84(%rip), %eax
	addl	$1, %eax
	movl	%eax, t85(%rip)
	movl	t85(%rip), %eax
	cltq
	leaq	0(,%rax,4), %rdx
	leaq	stack(%rip), %rax
	movss	(%rdx,%rax), %xmm0
	movss	%xmm0, t86(%rip)
	movl	t29(%rip), %eax
	addl	$1, %eax
	movl	%eax, t87(%rip)
	movl	p(%rip), %edx
	movl	t87(%rip), %eax
	addl	%edx, %eax
	movl	%eax, p(%rip)
	movl	p(%rip), %eax
	addl	$1, %eax
	movl	%eax, t88(%rip)
	movl	t81(%rip), %edx
	movl	t88(%rip), %eax
	pxor	%xmm0, %xmm0
	cvtsi2ssl	%edx, %xmm0
	cltq
	leaq	0(,%rax,4), %rdx
	leaq	stack(%rip), %rax
	movss	%xmm0, (%rdx,%rax)
	movl	p(%rip), %eax
	addl	$2, %eax
	movl	%eax, t89(%rip)
	movl	t89(%rip), %eax
	movss	t86(%rip), %xmm0
	cltq
	leaq	0(,%rax,4), %rdx
	leaq	stack(%rip), %rax
	movss	%xmm0, (%rdx,%rax)
	call	PY_Mostrar_INDEFINIDO_INDEFINIDO
	movl	t29(%rip), %eax
	addl	$1, %eax
	movl	%eax, t90(%rip)
	movl	p(%rip), %eax
	movl	t90(%rip), %edx
	subl	%edx, %eax
	movl	%eax, p(%rip)
	movl	p(%rip), %edx
	movl	t23(%rip), %eax
	addl	%edx, %eax
	movl	%eax, t91(%rip)
	movl	t91(%rip), %eax
	cltq
	leaq	0(,%rax,4), %rdx
	leaq	stack(%rip), %rax
	movss	(%rdx,%rax), %xmm0
	cvttss2sil	%xmm0, %eax
	movl	%eax, t92(%rip)
	movl	$1, t93(%rip)
	movl	t92(%rip), %edx
	movl	t93(%rip), %eax
	addl	%edx, %eax
	movl	%eax, t94(%rip)
	movl	p(%rip), %edx
	movl	t23(%rip), %eax
	addl	%edx, %eax
	movl	%eax, t95(%rip)
	movl	t94(%rip), %edx
	movl	t95(%rip), %eax
	pxor	%xmm0, %xmm0
	cvtsi2ssl	%edx, %xmm0
	cltq
	leaq	0(,%rax,4), %rdx
	leaq	stack(%rip), %rax
	movss	%xmm0, (%rdx,%rax)
	jmp	.L20
.L40:
	nop
.L23:
	movl	$0, t96(%rip)
	movl	p(%rip), %edx
	movl	t23(%rip), %eax
	addl	%edx, %eax
	movl	%eax, t97(%rip)
	movl	t96(%rip), %edx
	movl	t97(%rip), %eax
	pxor	%xmm0, %xmm0
	cvtsi2ssl	%edx, %xmm0
	cltq
	leaq	0(,%rax,4), %rdx
	leaq	stack(%rip), %rax
	movss	%xmm0, (%rdx,%rax)
.L24:
	movl	p(%rip), %edx
	movl	t23(%rip), %eax
	addl	%edx, %eax
	movl	%eax, t160(%rip)
	movl	t160(%rip), %eax
	cltq
	leaq	0(,%rax,4), %rdx
	leaq	stack(%rip), %rax
	movss	(%rdx,%rax), %xmm0
	cvttss2sil	%xmm0, %eax
	movl	%eax, t161(%rip)
	movl	$10, t162(%rip)
	movl	t161(%rip), %edx
	movl	t162(%rip), %eax
	cmpl	%eax, %edx
	jge	.L41
	nop
.L26:
	movl	p(%rip), %edx
	movl	t26(%rip), %eax
	addl	%edx, %eax
	movl	%eax, t145(%rip)
	movl	t145(%rip), %eax
	cltq
	leaq	0(,%rax,4), %rdx
	leaq	stack(%rip), %rax
	movss	(%rdx,%rax), %xmm0
	cvttss2sil	%xmm0, %eax
	movl	%eax, t146(%rip)
	movl	$9, t147(%rip)
	movl	t146(%rip), %edx
	movl	t147(%rip), %eax
	cmpl	%eax, %edx
	jge	.L42
	nop
.L29:
	movl	p(%rip), %edx
	movl	t26(%rip), %eax
	addl	%edx, %eax
	movl	%eax, t98(%rip)
	movl	t98(%rip), %eax
	cltq
	leaq	0(,%rax,4), %rdx
	leaq	stack(%rip), %rax
	movss	(%rdx,%rax), %xmm0
	cvttss2sil	%xmm0, %eax
	movl	%eax, t99(%rip)
	movl	t99(%rip), %eax
	movl	%eax, t100(%rip)
	movl	t100(%rip), %eax
	addl	$1, %eax
	movl	%eax, t101(%rip)
	movl	t101(%rip), %eax
	cltq
	leaq	0(,%rax,4), %rdx
	leaq	stack(%rip), %rax
	movss	(%rdx,%rax), %xmm0
	movss	%xmm0, t102(%rip)
	movl	p(%rip), %edx
	movl	t26(%rip), %eax
	addl	%edx, %eax
	movl	%eax, t103(%rip)
	movl	t103(%rip), %eax
	cltq
	leaq	0(,%rax,4), %rdx
	leaq	stack(%rip), %rax
	movss	(%rdx,%rax), %xmm0
	cvttss2sil	%xmm0, %eax
	movl	%eax, t104(%rip)
	movl	$1, t105(%rip)
	movl	t104(%rip), %edx
	movl	t105(%rip), %eax
	addl	%edx, %eax
	movl	%eax, t106(%rip)
	movl	t106(%rip), %eax
	movl	%eax, t107(%rip)
	movl	t107(%rip), %eax
	addl	$1, %eax
	movl	%eax, t108(%rip)
	movl	t108(%rip), %eax
	cltq
	leaq	0(,%rax,4), %rdx
	leaq	stack(%rip), %rax
	movss	(%rdx,%rax), %xmm0
	movss	%xmm0, t109(%rip)
	movss	t102(%rip), %xmm1
	movss	t109(%rip), %xmm0
	comiss	%xmm1, %xmm0
	ja	.L43
	jmp	.L34
.L43:
	nop
.L33:
	movl	p(%rip), %edx
	movl	t26(%rip), %eax
	addl	%edx, %eax
	movl	%eax, t110(%rip)
	movl	t110(%rip), %eax
	cltq
	leaq	0(,%rax,4), %rdx
	leaq	stack(%rip), %rax
	movss	(%rdx,%rax), %xmm0
	cvttss2sil	%xmm0, %eax
	movl	%eax, t111(%rip)
	movl	t111(%rip), %eax
	movl	%eax, t112(%rip)
	movl	t112(%rip), %eax
	addl	$1, %eax
	movl	%eax, t113(%rip)
	movl	t113(%rip), %eax
	cltq
	leaq	0(,%rax,4), %rdx
	leaq	stack(%rip), %rax
	movss	(%rdx,%rax), %xmm0
	movss	%xmm0, t114(%rip)
	movl	p(%rip), %edx
	movl	t29(%rip), %eax
	addl	%edx, %eax
	movl	%eax, t115(%rip)
	movl	t115(%rip), %eax
	movss	t114(%rip), %xmm0
	cltq
	leaq	0(,%rax,4), %rdx
	leaq	stack(%rip), %rax
	movss	%xmm0, (%rdx,%rax)
	movl	p(%rip), %edx
	movl	t26(%rip), %eax
	addl	%edx, %eax
	movl	%eax, t116(%rip)
	movl	t116(%rip), %eax
	cltq
	leaq	0(,%rax,4), %rdx
	leaq	stack(%rip), %rax
	movss	(%rdx,%rax), %xmm0
	cvttss2sil	%xmm0, %eax
	movl	%eax, t117(%rip)
	movl	t117(%rip), %eax
	movl	%eax, t118(%rip)
	movl	t118(%rip), %eax
	addl	$1, %eax
	movl	%eax, t119(%rip)
	movl	p(%rip), %edx
	movl	t26(%rip), %eax
	addl	%edx, %eax
	movl	%eax, t120(%rip)
	movl	t120(%rip), %eax
	cltq
	leaq	0(,%rax,4), %rdx
	leaq	stack(%rip), %rax
	movss	(%rdx,%rax), %xmm0
	cvttss2sil	%xmm0, %eax
	movl	%eax, t121(%rip)
	movl	$1, t122(%rip)
	movl	t121(%rip), %edx
	movl	t122(%rip), %eax
	addl	%edx, %eax
	movl	%eax, t123(%rip)
	movl	t123(%rip), %eax
	movl	%eax, t124(%rip)
	movl	t124(%rip), %eax
	addl	$1, %eax
	movl	%eax, t125(%rip)
	movl	t125(%rip), %eax
	cltq
	leaq	0(,%rax,4), %rdx
	leaq	stack(%rip), %rax
	movss	(%rdx,%rax), %xmm0
	movss	%xmm0, t126(%rip)
	movl	t119(%rip), %eax
	movss	t126(%rip), %xmm0
	cltq
	leaq	0(,%rax,4), %rdx
	leaq	stack(%rip), %rax
	movss	%xmm0, (%rdx,%rax)
	movl	p(%rip), %edx
	movl	t26(%rip), %eax
	addl	%edx, %eax
	movl	%eax, t127(%rip)
	movl	t127(%rip), %eax
	cltq
	leaq	0(,%rax,4), %rdx
	leaq	stack(%rip), %rax
	movss	(%rdx,%rax), %xmm0
	cvttss2sil	%xmm0, %eax
	movl	%eax, t128(%rip)
	movl	$1, t129(%rip)
	movl	t128(%rip), %edx
	movl	t129(%rip), %eax
	addl	%edx, %eax
	movl	%eax, t130(%rip)
	movl	t130(%rip), %eax
	movl	%eax, t131(%rip)
	movl	t131(%rip), %eax
	addl	$1, %eax
	movl	%eax, t132(%rip)
	movl	p(%rip), %edx
	movl	t29(%rip), %eax
	addl	%edx, %eax
	movl	%eax, t133(%rip)
	movl	t133(%rip), %eax
	cltq
	leaq	0(,%rax,4), %rdx
	leaq	stack(%rip), %rax
	movss	(%rdx,%rax), %xmm0
	cvttss2sil	%xmm0, %eax
	movl	%eax, t134(%rip)
	movl	t134(%rip), %edx
	movl	t132(%rip), %eax
	pxor	%xmm0, %xmm0
	cvtsi2ssl	%edx, %xmm0
	cltq
	leaq	0(,%rax,4), %rdx
	leaq	stack(%rip), %rax
	movss	%xmm0, (%rdx,%rax)
	nop
.L34:
	movl	p(%rip), %edx
	movl	t26(%rip), %eax
	addl	%edx, %eax
	movl	%eax, t135(%rip)
	movl	t135(%rip), %eax
	cltq
	leaq	0(,%rax,4), %rdx
	leaq	stack(%rip), %rax
	movss	(%rdx,%rax), %xmm0
	cvttss2sil	%xmm0, %eax
	movl	%eax, t136(%rip)
	movl	t29(%rip), %eax
	addl	$1, %eax
	movl	%eax, t137(%rip)
	movl	p(%rip), %edx
	movl	t137(%rip), %eax
	addl	%edx, %eax
	movl	%eax, p(%rip)
	movl	p(%rip), %eax
	addl	$2, %eax
	movl	%eax, t138(%rip)
	movl	t136(%rip), %edx
	movl	t138(%rip), %eax
	pxor	%xmm0, %xmm0
	cvtsi2ssl	%edx, %xmm0
	cltq
	leaq	0(,%rax,4), %rdx
	leaq	stack(%rip), %rax
	movss	%xmm0, (%rdx,%rax)
	movl	p(%rip), %eax
	movl	%eax, t139(%rip)
	movl	t139(%rip), %eax
	cltq
	leaq	0(,%rax,4), %rdx
	leaq	stack(%rip), %rax
	movss	(%rdx,%rax), %xmm0
	movss	%xmm0, t140(%rip)
	call	VB_Incremento_ENTERO
	movl	p(%rip), %eax
	movl	%eax, t141(%rip)
	movl	t141(%rip), %eax
	cltq
	leaq	0(,%rax,4), %rdx
	leaq	stack(%rip), %rax
	movss	(%rdx,%rax), %xmm0
	movss	%xmm0, t142(%rip)
	movl	t29(%rip), %eax
	addl	$1, %eax
	movl	%eax, t143(%rip)
	movl	p(%rip), %eax
	movl	t143(%rip), %edx
	subl	%edx, %eax
	movl	%eax, p(%rip)
	movl	p(%rip), %edx
	movl	t26(%rip), %eax
	addl	%edx, %eax
	movl	%eax, t144(%rip)
	movl	t144(%rip), %eax
	movss	t142(%rip), %xmm0
	cltq
	leaq	0(,%rax,4), %rdx
	leaq	stack(%rip), %rax
	movss	%xmm0, (%rdx,%rax)
	jmp	.L26
.L42:
	nop
.L30:
	movl	$0, t148(%rip)
	movl	p(%rip), %edx
	movl	t26(%rip), %eax
	addl	%edx, %eax
	movl	%eax, t149(%rip)
	movl	t148(%rip), %edx
	movl	t149(%rip), %eax
	pxor	%xmm0, %xmm0
	cvtsi2ssl	%edx, %xmm0
	cltq
	leaq	0(,%rax,4), %rdx
	leaq	stack(%rip), %rax
	movss	%xmm0, (%rdx,%rax)
	movl	p(%rip), %edx
	movl	t23(%rip), %eax
	addl	%edx, %eax
	movl	%eax, t150(%rip)
	movl	t150(%rip), %eax
	cltq
	leaq	0(,%rax,4), %rdx
	leaq	stack(%rip), %rax
	movss	(%rdx,%rax), %xmm0
	cvttss2sil	%xmm0, %eax
	movl	%eax, t151(%rip)
	movl	t29(%rip), %eax
	addl	$1, %eax
	movl	%eax, t152(%rip)
	movl	p(%rip), %edx
	movl	t152(%rip), %eax
	addl	%edx, %eax
	movl	%eax, p(%rip)
	movl	p(%rip), %eax
	addl	$2, %eax
	movl	%eax, t153(%rip)
	movl	t151(%rip), %edx
	movl	t153(%rip), %eax
	pxor	%xmm0, %xmm0
	cvtsi2ssl	%edx, %xmm0
	cltq
	leaq	0(,%rax,4), %rdx
	leaq	stack(%rip), %rax
	movss	%xmm0, (%rdx,%rax)
	movl	p(%rip), %eax
	movl	%eax, t154(%rip)
	movl	t154(%rip), %eax
	cltq
	leaq	0(,%rax,4), %rdx
	leaq	stack(%rip), %rax
	movss	(%rdx,%rax), %xmm0
	movss	%xmm0, t155(%rip)
	call	VB_Incremento_ENTERO
	movl	p(%rip), %eax
	movl	%eax, t156(%rip)
	movl	t156(%rip), %eax
	cltq
	leaq	0(,%rax,4), %rdx
	leaq	stack(%rip), %rax
	movss	(%rdx,%rax), %xmm0
	movss	%xmm0, t157(%rip)
	movl	t29(%rip), %eax
	addl	$1, %eax
	movl	%eax, t158(%rip)
	movl	p(%rip), %eax
	movl	t158(%rip), %edx
	subl	%edx, %eax
	movl	%eax, p(%rip)
	movl	p(%rip), %edx
	movl	t23(%rip), %eax
	addl	%edx, %eax
	movl	%eax, t159(%rip)
	movl	t159(%rip), %eax
	movss	t157(%rip), %xmm0
	cltq
	leaq	0(,%rax,4), %rdx
	leaq	stack(%rip), %rax
	movss	%xmm0, (%rdx,%rax)
	jmp	.L24
.L41:
	nop
.L27:
	movl	$2, t163(%rip)
	movl	t29(%rip), %eax
	addl	$1, %eax
	movl	%eax, t164(%rip)
	movl	p(%rip), %edx
	movl	t164(%rip), %eax
	addl	%edx, %eax
	movl	%eax, p(%rip)
	movl	p(%rip), %eax
	addl	$1, %eax
	movl	%eax, t165(%rip)
	movl	t163(%rip), %edx
	movl	t165(%rip), %eax
	pxor	%xmm0, %xmm0
	cvtsi2ssl	%edx, %xmm0
	cltq
	leaq	0(,%rax,4), %rdx
	leaq	stack(%rip), %rax
	movss	%xmm0, (%rdx,%rax)
	call	PY_Mensaje_INDEFINIDO
	movl	t29(%rip), %eax
	addl	$1, %eax
	movl	%eax, t166(%rip)
	movl	p(%rip), %eax
	movl	t166(%rip), %edx
	subl	%edx, %eax
	movl	%eax, p(%rip)
	movl	$0, t167(%rip)
	movl	p(%rip), %edx
	movl	t23(%rip), %eax
	addl	%edx, %eax
	movl	%eax, t168(%rip)
	movl	t167(%rip), %edx
	movl	t168(%rip), %eax
	pxor	%xmm0, %xmm0
	cvtsi2ssl	%edx, %xmm0
	cltq
	leaq	0(,%rax,4), %rdx
	leaq	stack(%rip), %rax
	movss	%xmm0, (%rdx,%rax)
.L35:
	movl	p(%rip), %edx
	movl	t23(%rip), %eax
	addl	%edx, %eax
	movl	%eax, t169(%rip)
	movl	t169(%rip), %eax
	cltq
	leaq	0(,%rax,4), %rdx
	leaq	stack(%rip), %rax
	movss	(%rdx,%rax), %xmm0
	cvttss2sil	%xmm0, %eax
	movl	%eax, t170(%rip)
	movl	p(%rip), %eax
	movl	%eax, t171(%rip)
	movl	t171(%rip), %eax
	cltq
	leaq	0(,%rax,4), %rdx
	leaq	stack(%rip), %rax
	movss	(%rdx,%rax), %xmm0
	cvttss2sil	%xmm0, %eax
	movl	%eax, t172(%rip)
	movl	t170(%rip), %edx
	movl	t172(%rip), %eax
	cmpl	%eax, %edx
	jge	.L44
	nop
.L37:
	movl	p(%rip), %edx
	movl	t23(%rip), %eax
	addl	%edx, %eax
	movl	%eax, t173(%rip)
	movl	t173(%rip), %eax
	cltq
	leaq	0(,%rax,4), %rdx
	leaq	stack(%rip), %rax
	movss	(%rdx,%rax), %xmm0
	cvttss2sil	%xmm0, %eax
	movl	%eax, t174(%rip)
	movl	p(%rip), %edx
	movl	t23(%rip), %eax
	addl	%edx, %eax
	movl	%eax, t175(%rip)
	movl	t175(%rip), %eax
	cltq
	leaq	0(,%rax,4), %rdx
	leaq	stack(%rip), %rax
	movss	(%rdx,%rax), %xmm0
	cvttss2sil	%xmm0, %eax
	movl	%eax, t176(%rip)
	movl	t176(%rip), %eax
	movl	%eax, t177(%rip)
	movl	t177(%rip), %eax
	addl	$1, %eax
	movl	%eax, t178(%rip)
	movl	t178(%rip), %eax
	cltq
	leaq	0(,%rax,4), %rdx
	leaq	stack(%rip), %rax
	movss	(%rdx,%rax), %xmm0
	movss	%xmm0, t179(%rip)
	movl	t29(%rip), %eax
	addl	$1, %eax
	movl	%eax, t180(%rip)
	movl	p(%rip), %edx
	movl	t180(%rip), %eax
	addl	%edx, %eax
	movl	%eax, p(%rip)
	movl	p(%rip), %eax
	addl	$1, %eax
	movl	%eax, t181(%rip)
	movl	t174(%rip), %edx
	movl	t181(%rip), %eax
	pxor	%xmm0, %xmm0
	cvtsi2ssl	%edx, %xmm0
	cltq
	leaq	0(,%rax,4), %rdx
	leaq	stack(%rip), %rax
	movss	%xmm0, (%rdx,%rax)
	movl	p(%rip), %eax
	addl	$2, %eax
	movl	%eax, t182(%rip)
	movl	t182(%rip), %eax
	movss	t179(%rip), %xmm0
	cltq
	leaq	0(,%rax,4), %rdx
	leaq	stack(%rip), %rax
	movss	%xmm0, (%rdx,%rax)
	call	PY_Mostrar_INDEFINIDO_INDEFINIDO
	movl	t29(%rip), %eax
	addl	$1, %eax
	movl	%eax, t183(%rip)
	movl	p(%rip), %eax
	movl	t183(%rip), %edx
	subl	%edx, %eax
	movl	%eax, p(%rip)
	movl	p(%rip), %edx
	movl	t23(%rip), %eax
	addl	%edx, %eax
	movl	%eax, t184(%rip)
	movl	t184(%rip), %eax
	cltq
	leaq	0(,%rax,4), %rdx
	leaq	stack(%rip), %rax
	movss	(%rdx,%rax), %xmm0
	cvttss2sil	%xmm0, %eax
	movl	%eax, t185(%rip)
	movl	$1, t186(%rip)
	movl	t185(%rip), %edx
	movl	t186(%rip), %eax
	addl	%edx, %eax
	movl	%eax, t187(%rip)
	movl	p(%rip), %edx
	movl	t23(%rip), %eax
	addl	%edx, %eax
	movl	%eax, t188(%rip)
	movl	t187(%rip), %edx
	movl	t188(%rip), %eax
	pxor	%xmm0, %xmm0
	cvtsi2ssl	%edx, %xmm0
	cltq
	leaq	0(,%rax,4), %rdx
	leaq	stack(%rip), %rax
	movss	%xmm0, (%rdx,%rax)
	jmp	.L35
.L44:
	nop
.L38:
	call	getchar@PLT
	movl	$0, %eax
	popq	%rbp
	.cfi_def_cfa 7, 8
	ret
	.cfi_endproc
.LFE3:
	.size	main, .-main
	.ident	"GCC: (GNU) 10.2.0"
	.section	.note.GNU-stack,"",@progbits
